   1                     ; C Compiler for STM8 (COSMIC Software)
   2                     ; Parser V4.10.13 - 06 Dec 2012
   3                     ; Generator (Limited) V4.3.9 - 06 Dec 2012
   4                     ; Optimizer V4.3.8 - 06 Dec 2012
  19                     .const:	section	.text
  20  0000               _SinCard12bit:
  21  0000 037c          	dc.w	892
  22  0002 0376          	dc.w	886
  23  0004 0360          	dc.w	864
  24  0006 033c          	dc.w	828
  25  0008 030c          	dc.w	780
  26  000a 02d6          	dc.w	726
  27  000c 029e          	dc.w	670
  28  000e 0269          	dc.w	617
  29  0010 023e          	dc.w	574
  30  0012 0221          	dc.w	545
  31  0014 0214          	dc.w	532
  32  0016 021b          	dc.w	539
  33  0018 0235          	dc.w	565
  34  001a 0260          	dc.w	608
  35  001c 0298          	dc.w	664
  36  001e 02d9          	dc.w	729
  37  0020 031d          	dc.w	797
  38  0022 035c          	dc.w	860
  39  0024 0391          	dc.w	913
  40  0026 03b6          	dc.w	950
  41  0028 03c6          	dc.w	966
  42  002a 03bf          	dc.w	959
  43  002c 03a0          	dc.w	928
  44  002e 036c          	dc.w	876
  45  0030 0327          	dc.w	807
  46  0032 02d6          	dc.w	726
  47  0034 0281          	dc.w	641
  48  0036 0230          	dc.w	560
  49  0038 01ec          	dc.w	492
  50  003a 01bc          	dc.w	444
  51  003c 01a5          	dc.w	421
  52  003e 01ac          	dc.w	428
  53  0040 01d2          	dc.w	466
  54  0042 0214          	dc.w	532
  55  0044 026e          	dc.w	622
  56  0046 02d9          	dc.w	729
  57  0048 034b          	dc.w	843
  58  004a 03ba          	dc.w	954
  59  004c 041a          	dc.w	1050
  60  004e 0460          	dc.w	1120
  61  0050 0484          	dc.w	1156
  62  0052 0480          	dc.w	1152
  63  0054 0450          	dc.w	1104
  64  0056 03f5          	dc.w	1013
  65  0058 0374          	dc.w	884
  66  005a 02d6          	dc.w	726
  67  005c 0227          	dc.w	551
  68  005e 0178          	dc.w	376
  69  0060 00d8          	dc.w	216
  70  0062 005a          	dc.w	90
  71  0064 000d          	dc.w	13
  72  0066 0000          	dc.w	0
  73  0068 003d          	dc.w	61
  74  006a 00cc          	dc.w	204
  75  006c 01ac          	dc.w	428
  76  006e 02d9          	dc.w	729
  77  0070 0449          	dc.w	1097
  78  0072 05ed          	dc.w	1517
  79  0074 07b0          	dc.w	1968
  80  0076 097c          	dc.w	2428
  81  0078 0b38          	dc.w	2872
  82  007a 0ccc          	dc.w	3276
  83  007c 0e22          	dc.w	3618
  84  007e 0f25          	dc.w	3877
  85  0080 0fc7          	dc.w	4039
  86  0082 0ffe          	dc.w	4094
  87  0084 0fc7          	dc.w	4039
  88  0086 0f25          	dc.w	3877
  89  0088 0e22          	dc.w	3618
  90  008a 0ccc          	dc.w	3276
  91  008c 0b38          	dc.w	2872
  92  008e 097c          	dc.w	2428
  93  0090 07b0          	dc.w	1968
  94  0092 05ed          	dc.w	1517
  95  0094 0449          	dc.w	1097
  96  0096 02d9          	dc.w	729
  97  0098 01ac          	dc.w	428
  98  009a 00cc          	dc.w	204
  99  009c 003d          	dc.w	61
 100  009e 0000          	dc.w	0
 101  00a0 000d          	dc.w	13
 102  00a2 005a          	dc.w	90
 103  00a4 00d8          	dc.w	216
 104  00a6 0178          	dc.w	376
 105  00a8 0227          	dc.w	551
 106  00aa 02d6          	dc.w	726
 107  00ac 0374          	dc.w	884
 108  00ae 03f5          	dc.w	1013
 109  00b0 0450          	dc.w	1104
 110  00b2 0480          	dc.w	1152
 111  00b4 0484          	dc.w	1156
 112  00b6 0460          	dc.w	1120
 113  00b8 041a          	dc.w	1050
 114  00ba 03ba          	dc.w	954
 115  00bc 034b          	dc.w	843
 116  00be 02d9          	dc.w	729
 117  00c0 026e          	dc.w	622
 118  00c2 0214          	dc.w	532
 119  00c4 01d2          	dc.w	466
 120  00c6 01ac          	dc.w	428
 121  00c8 01a5          	dc.w	421
 122  00ca 01bc          	dc.w	444
 123  00cc 01ec          	dc.w	492
 124  00ce 0230          	dc.w	560
 125  00d0 0281          	dc.w	641
 126  00d2 02d6          	dc.w	726
 127  00d4 0327          	dc.w	807
 128  00d6 036c          	dc.w	876
 129  00d8 03a0          	dc.w	928
 130  00da 03bf          	dc.w	959
 131  00dc 03c6          	dc.w	966
 132  00de 03b6          	dc.w	950
 133  00e0 0391          	dc.w	913
 134  00e2 035c          	dc.w	860
 135  00e4 031d          	dc.w	797
 136  00e6 02d9          	dc.w	729
 137  00e8 0298          	dc.w	664
 138  00ea 0260          	dc.w	608
 139  00ec 0235          	dc.w	565
 140  00ee 021b          	dc.w	539
 141  00f0 0214          	dc.w	532
 142  00f2 0221          	dc.w	545
 143  00f4 023e          	dc.w	574
 144  00f6 0269          	dc.w	617
 145  00f8 029e          	dc.w	670
 146  00fa 02d6          	dc.w	726
 147  00fc 030c          	dc.w	780
 148  00fe 033c          	dc.w	828
 149  0100 0360          	dc.w	864
 150  0102 0376          	dc.w	886
 151  0104               _Triang12bit:
 152  0104 0000          	dc.w	0
 153  0106 003c          	dc.w	60
 154  0108 0078          	dc.w	120
 155  010a 00b4          	dc.w	180
 156  010c 00f0          	dc.w	240
 157  010e 012c          	dc.w	300
 158  0110 0168          	dc.w	360
 159  0112 01a4          	dc.w	420
 160  0114 01e0          	dc.w	480
 161  0116 021c          	dc.w	540
 162  0118 0258          	dc.w	600
 163  011a 0294          	dc.w	660
 164  011c 02d0          	dc.w	720
 165  011e 030c          	dc.w	780
 166  0120 0348          	dc.w	840
 167  0122 0384          	dc.w	900
 168  0124 03c0          	dc.w	960
 169  0126 03fc          	dc.w	1020
 170  0128 0438          	dc.w	1080
 171  012a 0474          	dc.w	1140
 172  012c 04b0          	dc.w	1200
 173  012e 04ec          	dc.w	1260
 174  0130 0528          	dc.w	1320
 175  0132 0564          	dc.w	1380
 176  0134 05a0          	dc.w	1440
 177  0136 05dc          	dc.w	1500
 178  0138 0618          	dc.w	1560
 179  013a 0654          	dc.w	1620
 180  013c 0690          	dc.w	1680
 181  013e 06cc          	dc.w	1740
 182  0140 0708          	dc.w	1800
 183  0142 0744          	dc.w	1860
 184  0144 0780          	dc.w	1920
 185  0146 07bc          	dc.w	1980
 186  0148 07f8          	dc.w	2040
 187  014a 0834          	dc.w	2100
 188  014c 0870          	dc.w	2160
 189  014e 08ac          	dc.w	2220
 190  0150 08e8          	dc.w	2280
 191  0152 0924          	dc.w	2340
 192  0154 0960          	dc.w	2400
 193  0156 099c          	dc.w	2460
 194  0158 09d8          	dc.w	2520
 195  015a 0a14          	dc.w	2580
 196  015c 0a50          	dc.w	2640
 197  015e 0a8c          	dc.w	2700
 198  0160 0ac8          	dc.w	2760
 199  0162 0b04          	dc.w	2820
 200  0164 0b40          	dc.w	2880
 201  0166 0b7c          	dc.w	2940
 202  0168 0bb8          	dc.w	3000
 203  016a 0bf4          	dc.w	3060
 204  016c 0c30          	dc.w	3120
 205  016e 0c6c          	dc.w	3180
 206  0170 0ca8          	dc.w	3240
 207  0172 0ce4          	dc.w	3300
 208  0174 0d20          	dc.w	3360
 209  0176 0d5c          	dc.w	3420
 210  0178 0d98          	dc.w	3480
 211  017a 0dd4          	dc.w	3540
 212  017c 0e10          	dc.w	3600
 213  017e 0e4c          	dc.w	3660
 214  0180 0e88          	dc.w	3720
 215  0182 0ec4          	dc.w	3780
 216  0184 0f00          	dc.w	3840
 217  0186 0f3c          	dc.w	3900
 218  0188 0f00          	dc.w	3840
 219  018a 0ec4          	dc.w	3780
 220  018c 0e88          	dc.w	3720
 221  018e 0e4c          	dc.w	3660
 222  0190 0e10          	dc.w	3600
 223  0192 0dd4          	dc.w	3540
 224  0194 0d98          	dc.w	3480
 225  0196 0d5c          	dc.w	3420
 226  0198 0d20          	dc.w	3360
 227  019a 0ce4          	dc.w	3300
 228  019c 0ca8          	dc.w	3240
 229  019e 0c6c          	dc.w	3180
 230  01a0 0c30          	dc.w	3120
 231  01a2 0bf4          	dc.w	3060
 232  01a4 0bb8          	dc.w	3000
 233  01a6 0b7c          	dc.w	2940
 234  01a8 0b40          	dc.w	2880
 235  01aa 0b04          	dc.w	2820
 236  01ac 0ac8          	dc.w	2760
 237  01ae 0a8c          	dc.w	2700
 238  01b0 0a50          	dc.w	2640
 239  01b2 0a14          	dc.w	2580
 240  01b4 09d8          	dc.w	2520
 241  01b6 099c          	dc.w	2460
 242  01b8 0960          	dc.w	2400
 243  01ba 0924          	dc.w	2340
 244  01bc 08e8          	dc.w	2280
 245  01be 08ac          	dc.w	2220
 246  01c0 0870          	dc.w	2160
 247  01c2 0834          	dc.w	2100
 248  01c4 07f8          	dc.w	2040
 249  01c6 07bc          	dc.w	1980
 250  01c8 0780          	dc.w	1920
 251  01ca 0744          	dc.w	1860
 252  01cc 0708          	dc.w	1800
 253  01ce 06cc          	dc.w	1740
 254  01d0 0690          	dc.w	1680
 255  01d2 0654          	dc.w	1620
 256  01d4 0618          	dc.w	1560
 257  01d6 05dc          	dc.w	1500
 258  01d8 05a0          	dc.w	1440
 259  01da 0564          	dc.w	1380
 260  01dc 0528          	dc.w	1320
 261  01de 04ec          	dc.w	1260
 262  01e0 04b0          	dc.w	1200
 263  01e2 0474          	dc.w	1140
 264  01e4 0438          	dc.w	1080
 265  01e6 03fc          	dc.w	1020
 266  01e8 03c0          	dc.w	960
 267  01ea 0384          	dc.w	900
 268  01ec 0348          	dc.w	840
 269  01ee 030c          	dc.w	780
 270  01f0 02d0          	dc.w	720
 271  01f2 0294          	dc.w	660
 272  01f4 0258          	dc.w	600
 273  01f6 021c          	dc.w	540
 274  01f8 01e0          	dc.w	480
 275  01fa 01a4          	dc.w	420
 276  01fc 0168          	dc.w	360
 277  01fe 012c          	dc.w	300
 278  0200 00f0          	dc.w	240
 279  0202 00b4          	dc.w	180
 280  0204 0078          	dc.w	120
 281  0206 003c          	dc.w	60
 282  0208               _Sinus12bit:
 283  0208 0708          	dc.w	1800
 284  020a 075f          	dc.w	1887
 285  020c 07b6          	dc.w	1974
 286  020e 080c          	dc.w	2060
 287  0210 0862          	dc.w	2146
 288  0212 08b7          	dc.w	2231
 289  0214 090b          	dc.w	2315
 290  0216 095d          	dc.w	2397
 291  0218 09af          	dc.w	2479
 292  021a 09ff          	dc.w	2559
 293  021c 0a4d          	dc.w	2637
 294  021e 0a99          	dc.w	2713
 295  0220 0ae2          	dc.w	2786
 296  0222 0b2a          	dc.w	2858
 297  0224 0b6f          	dc.w	2927
 298  0226 0bb2          	dc.w	2994
 299  0228 0bf1          	dc.w	3057
 300  022a 0c2e          	dc.w	3118
 301  022c 0c68          	dc.w	3176
 302  022e 0c9e          	dc.w	3230
 303  0230 0cd1          	dc.w	3281
 304  0232 0d01          	dc.w	3329
 305  0234 0d2d          	dc.w	3373
 306  0236 0d56          	dc.w	3414
 307  0238 0d7a          	dc.w	3450
 308  023a 0d9b          	dc.w	3483
 309  023c 0db8          	dc.w	3512
 310  023e 0dd1          	dc.w	3537
 311  0240 0de6          	dc.w	3558
 312  0242 0df6          	dc.w	3574
 313  0244 0e03          	dc.w	3587
 314  0246 0e0b          	dc.w	3595
 315  0248 0e0f          	dc.w	3599
 316  024a 0e0f          	dc.w	3599
 317  024c 0e0b          	dc.w	3595
 318  024e 0e03          	dc.w	3587
 319  0250 0df6          	dc.w	3574
 320  0252 0de6          	dc.w	3558
 321  0254 0dd1          	dc.w	3537
 322  0256 0db8          	dc.w	3512
 323  0258 0d9b          	dc.w	3483
 324  025a 0d7a          	dc.w	3450
 325  025c 0d56          	dc.w	3414
 326  025e 0d2d          	dc.w	3373
 327  0260 0d01          	dc.w	3329
 328  0262 0cd1          	dc.w	3281
 329  0264 0c9e          	dc.w	3230
 330  0266 0c68          	dc.w	3176
 331  0268 0c2e          	dc.w	3118
 332  026a 0bf1          	dc.w	3057
 333  026c 0bb2          	dc.w	2994
 334  026e 0b6f          	dc.w	2927
 335  0270 0b2a          	dc.w	2858
 336  0272 0ae2          	dc.w	2786
 337  0274 0a99          	dc.w	2713
 338  0276 0a4d          	dc.w	2637
 339  0278 09ff          	dc.w	2559
 340  027a 09af          	dc.w	2479
 341  027c 095d          	dc.w	2397
 342  027e 090b          	dc.w	2315
 343  0280 08b7          	dc.w	2231
 344  0282 0862          	dc.w	2146
 345  0284 080c          	dc.w	2060
 346  0286 07b6          	dc.w	1974
 347  0288 075f          	dc.w	1887
 348  028a 0708          	dc.w	1800
 349  028c 06b1          	dc.w	1713
 350  028e 065a          	dc.w	1626
 351  0290 0604          	dc.w	1540
 352  0292 05ae          	dc.w	1454
 353  0294 0559          	dc.w	1369
 354  0296 0505          	dc.w	1285
 355  0298 04b3          	dc.w	1203
 356  029a 0461          	dc.w	1121
 357  029c 0411          	dc.w	1041
 358  029e 03c3          	dc.w	963
 359  02a0 0377          	dc.w	887
 360  02a2 032e          	dc.w	814
 361  02a4 02e6          	dc.w	742
 362  02a6 02a1          	dc.w	673
 363  02a8 025e          	dc.w	606
 364  02aa 021f          	dc.w	543
 365  02ac 01e2          	dc.w	482
 366  02ae 01a8          	dc.w	424
 367  02b0 0172          	dc.w	370
 368  02b2 013f          	dc.w	319
 369  02b4 010f          	dc.w	271
 370  02b6 00e3          	dc.w	227
 371  02b8 00ba          	dc.w	186
 372  02ba 0096          	dc.w	150
 373  02bc 0075          	dc.w	117
 374  02be 0058          	dc.w	88
 375  02c0 003f          	dc.w	63
 376  02c2 002a          	dc.w	42
 377  02c4 001a          	dc.w	26
 378  02c6 000d          	dc.w	13
 379  02c8 0005          	dc.w	5
 380  02ca 0001          	dc.w	1
 381  02cc 0001          	dc.w	1
 382  02ce 0005          	dc.w	5
 383  02d0 000d          	dc.w	13
 384  02d2 001a          	dc.w	26
 385  02d4 002a          	dc.w	42
 386  02d6 003f          	dc.w	63
 387  02d8 0058          	dc.w	88
 388  02da 0075          	dc.w	117
 389  02dc 0096          	dc.w	150
 390  02de 00ba          	dc.w	186
 391  02e0 00e3          	dc.w	227
 392  02e2 010f          	dc.w	271
 393  02e4 013f          	dc.w	319
 394  02e6 0172          	dc.w	370
 395  02e8 01a8          	dc.w	424
 396  02ea 01e2          	dc.w	482
 397  02ec 021f          	dc.w	543
 398  02ee 025e          	dc.w	606
 399  02f0 02a1          	dc.w	673
 400  02f2 02e6          	dc.w	742
 401  02f4 032e          	dc.w	814
 402  02f6 0377          	dc.w	887
 403  02f8 03c3          	dc.w	963
 404  02fa 0411          	dc.w	1041
 405  02fc 0461          	dc.w	1121
 406  02fe 04b3          	dc.w	1203
 407  0300 0505          	dc.w	1285
 408  0302 0559          	dc.w	1369
 409  0304 05ae          	dc.w	1454
 410  0306 0604          	dc.w	1540
 411  0308 065a          	dc.w	1626
 412  030a 06b1          	dc.w	1713
 413  030c               _Square12bit:
 414  030c 0fff          	dc.w	4095
 415  030e 0fff          	dc.w	4095
 416  0310 0fff          	dc.w	4095
 417  0312 0fff          	dc.w	4095
 418  0314 0fff          	dc.w	4095
 419  0316 0fff          	dc.w	4095
 420  0318 0fff          	dc.w	4095
 421  031a 0fff          	dc.w	4095
 422  031c 0fff          	dc.w	4095
 423  031e 0fff          	dc.w	4095
 424  0320 0fff          	dc.w	4095
 425  0322 0fff          	dc.w	4095
 426  0324 0fff          	dc.w	4095
 427  0326 0fff          	dc.w	4095
 428  0328 0fff          	dc.w	4095
 429  032a 0fff          	dc.w	4095
 430  032c 0fff          	dc.w	4095
 431  032e 0fff          	dc.w	4095
 432  0330 0fff          	dc.w	4095
 433  0332 0fff          	dc.w	4095
 434  0334 0fff          	dc.w	4095
 435  0336 0fff          	dc.w	4095
 436  0338 0fff          	dc.w	4095
 437  033a 0fff          	dc.w	4095
 438  033c 0fff          	dc.w	4095
 439  033e 0fff          	dc.w	4095
 440  0340 0fff          	dc.w	4095
 441  0342 0fff          	dc.w	4095
 442  0344 0fff          	dc.w	4095
 443  0346 0fff          	dc.w	4095
 444  0348 0fff          	dc.w	4095
 445  034a 0fff          	dc.w	4095
 446  034c 0fff          	dc.w	4095
 447  034e 0fff          	dc.w	4095
 448  0350 0fff          	dc.w	4095
 449  0352 0fff          	dc.w	4095
 450  0354 0fff          	dc.w	4095
 451  0356 0fff          	dc.w	4095
 452  0358 0fff          	dc.w	4095
 453  035a 0fff          	dc.w	4095
 454  035c 0fff          	dc.w	4095
 455  035e 0fff          	dc.w	4095
 456  0360 0fff          	dc.w	4095
 457  0362 0fff          	dc.w	4095
 458  0364 0fff          	dc.w	4095
 459  0366 0fff          	dc.w	4095
 460  0368 0fff          	dc.w	4095
 461  036a 0fff          	dc.w	4095
 462  036c 0fff          	dc.w	4095
 463  036e 0fff          	dc.w	4095
 464  0370 0fff          	dc.w	4095
 465  0372 0fff          	dc.w	4095
 466  0374 0fff          	dc.w	4095
 467  0376 0fff          	dc.w	4095
 468  0378 0fff          	dc.w	4095
 469  037a 0fff          	dc.w	4095
 470  037c 0fff          	dc.w	4095
 471  037e 0fff          	dc.w	4095
 472  0380 0fff          	dc.w	4095
 473  0382 0fff          	dc.w	4095
 474  0384 0fff          	dc.w	4095
 475  0386 0fff          	dc.w	4095
 476  0388 0fff          	dc.w	4095
 477  038a 0fff          	dc.w	4095
 478  038c 0fff          	dc.w	4095
 479  038e 0000          	dc.w	0
 480  0390 0000          	dc.w	0
 481  0392 0000          	dc.w	0
 482  0394 0000          	dc.w	0
 483  0396 0000          	dc.w	0
 484  0398 0000          	dc.w	0
 485  039a 0000          	dc.w	0
 486  039c 0000          	dc.w	0
 487  039e 0000          	dc.w	0
 488  03a0 0000          	dc.w	0
 489  03a2 0000          	dc.w	0
 490  03a4 0000          	dc.w	0
 491  03a6 0000          	dc.w	0
 492  03a8 0000          	dc.w	0
 493  03aa 0000          	dc.w	0
 494  03ac 0000          	dc.w	0
 495  03ae 0000          	dc.w	0
 496  03b0 0000          	dc.w	0
 497  03b2 0000          	dc.w	0
 498  03b4 0000          	dc.w	0
 499  03b6 0000          	dc.w	0
 500  03b8 0000          	dc.w	0
 501  03ba 0000          	dc.w	0
 502  03bc 0000          	dc.w	0
 503  03be 0000          	dc.w	0
 504  03c0 0000          	dc.w	0
 505  03c2 0000          	dc.w	0
 506  03c4 0000          	dc.w	0
 507  03c6 0000          	dc.w	0
 508  03c8 0000          	dc.w	0
 509  03ca 0000          	dc.w	0
 510  03cc 0000          	dc.w	0
 511  03ce 0000          	dc.w	0
 512  03d0 0000          	dc.w	0
 513  03d2 0000          	dc.w	0
 514  03d4 0000          	dc.w	0
 515  03d6 0000          	dc.w	0
 516  03d8 0000          	dc.w	0
 517  03da 0000          	dc.w	0
 518  03dc 0000          	dc.w	0
 519  03de 0000          	dc.w	0
 520  03e0 0000          	dc.w	0
 521  03e2 0000          	dc.w	0
 522  03e4 0000          	dc.w	0
 523  03e6 0000          	dc.w	0
 524  03e8 0000          	dc.w	0
 525  03ea 0000          	dc.w	0
 526  03ec 0000          	dc.w	0
 527  03ee 0000          	dc.w	0
 528  03f0 0000          	dc.w	0
 529  03f2 0000          	dc.w	0
 530  03f4 0000          	dc.w	0
 531  03f6 0000          	dc.w	0
 532  03f8 0000          	dc.w	0
 533  03fa 0000          	dc.w	0
 534  03fc 0000          	dc.w	0
 535  03fe 0000          	dc.w	0
 536  0400 0000          	dc.w	0
 537  0402 0000          	dc.w	0
 538  0404 0000          	dc.w	0
 539  0406 0000          	dc.w	0
 540  0408 0000          	dc.w	0
 541  040a 0000          	dc.w	0
 542  040c 0000          	dc.w	0
 543  040e 0000          	dc.w	0
 544  0410               _SawTooth12bit:
 545  0410 0000          	dc.w	0
 546  0412 001f          	dc.w	31
 547  0414 003f          	dc.w	63
 548  0416 005f          	dc.w	95
 549  0418 007e          	dc.w	126
 550  041a 009e          	dc.w	158
 551  041c 00be          	dc.w	190
 552  041e 00de          	dc.w	222
 553  0420 00fd          	dc.w	253
 554  0422 011d          	dc.w	285
 555  0424 013d          	dc.w	317
 556  0426 015d          	dc.w	349
 557  0428 017c          	dc.w	380
 558  042a 019c          	dc.w	412
 559  042c 01bc          	dc.w	444
 560  042e 01dc          	dc.w	476
 561  0430 01fb          	dc.w	507
 562  0432 021b          	dc.w	539
 563  0434 023b          	dc.w	571
 564  0436 025b          	dc.w	603
 565  0438 027a          	dc.w	634
 566  043a 029a          	dc.w	666
 567  043c 02ba          	dc.w	698
 568  043e 02da          	dc.w	730
 569  0440 02f9          	dc.w	761
 570  0442 0319          	dc.w	793
 571  0444 0339          	dc.w	825
 572  0446 0359          	dc.w	857
 573  0448 0378          	dc.w	888
 574  044a 0398          	dc.w	920
 575  044c 03b8          	dc.w	952
 576  044e 03d8          	dc.w	984
 577  0450 03f7          	dc.w	1015
 578  0452 0417          	dc.w	1047
 579  0454 0437          	dc.w	1079
 580  0456 0457          	dc.w	1111
 581  0458 0476          	dc.w	1142
 582  045a 0496          	dc.w	1174
 583  045c 04b6          	dc.w	1206
 584  045e 04d6          	dc.w	1238
 585  0460 04f5          	dc.w	1269
 586  0462 0515          	dc.w	1301
 587  0464 0535          	dc.w	1333
 588  0466 0555          	dc.w	1365
 589  0468 0574          	dc.w	1396
 590  046a 0594          	dc.w	1428
 591  046c 05b4          	dc.w	1460
 592  046e 05d3          	dc.w	1491
 593  0470 05f3          	dc.w	1523
 594  0472 0613          	dc.w	1555
 595  0474 0633          	dc.w	1587
 596  0476 0652          	dc.w	1618
 597  0478 0672          	dc.w	1650
 598  047a 0692          	dc.w	1682
 599  047c 06b2          	dc.w	1714
 600  047e 06d1          	dc.w	1745
 601  0480 06f1          	dc.w	1777
 602  0482 0711          	dc.w	1809
 603  0484 0731          	dc.w	1841
 604  0486 0750          	dc.w	1872
 605  0488 0770          	dc.w	1904
 606  048a 0790          	dc.w	1936
 607  048c 07b0          	dc.w	1968
 608  048e 07cf          	dc.w	1999
 609  0490 07ef          	dc.w	2031
 610  0492 080f          	dc.w	2063
 611  0494 082f          	dc.w	2095
 612  0496 084e          	dc.w	2126
 613  0498 086e          	dc.w	2158
 614  049a 088e          	dc.w	2190
 615  049c 08ae          	dc.w	2222
 616  049e 08cd          	dc.w	2253
 617  04a0 08ed          	dc.w	2285
 618  04a2 090d          	dc.w	2317
 619  04a4 092d          	dc.w	2349
 620  04a6 094c          	dc.w	2380
 621  04a8 096c          	dc.w	2412
 622  04aa 098c          	dc.w	2444
 623  04ac 09ac          	dc.w	2476
 624  04ae 09cb          	dc.w	2507
 625  04b0 09eb          	dc.w	2539
 626  04b2 0a0b          	dc.w	2571
 627  04b4 0a2b          	dc.w	2603
 628  04b6 0a4a          	dc.w	2634
 629  04b8 0a6a          	dc.w	2666
 630  04ba 0a8a          	dc.w	2698
 631  04bc 0aaa          	dc.w	2730
 632  04be 0ac9          	dc.w	2761
 633  04c0 0ae9          	dc.w	2793
 634  04c2 0b09          	dc.w	2825
 635  04c4 0b28          	dc.w	2856
 636  04c6 0b48          	dc.w	2888
 637  04c8 0b68          	dc.w	2920
 638  04ca 0b88          	dc.w	2952
 639  04cc 0ba7          	dc.w	2983
 640  04ce 0bc7          	dc.w	3015
 641  04d0 0be7          	dc.w	3047
 642  04d2 0c07          	dc.w	3079
 643  04d4 0c26          	dc.w	3110
 644  04d6 0c46          	dc.w	3142
 645  04d8 0c66          	dc.w	3174
 646  04da 0c86          	dc.w	3206
 647  04dc 0ca5          	dc.w	3237
 648  04de 0cc5          	dc.w	3269
 649  04e0 0ce5          	dc.w	3301
 650  04e2 0d05          	dc.w	3333
 651  04e4 0d24          	dc.w	3364
 652  04e6 0d44          	dc.w	3396
 653  04e8 0d64          	dc.w	3428
 654  04ea 0d84          	dc.w	3460
 655  04ec 0da3          	dc.w	3491
 656  04ee 0dc3          	dc.w	3523
 657  04f0 0de3          	dc.w	3555
 658  04f2 0e03          	dc.w	3587
 659  04f4 0e22          	dc.w	3618
 660  04f6 0e42          	dc.w	3650
 661  04f8 0e62          	dc.w	3682
 662  04fa 0e82          	dc.w	3714
 663  04fc 0ea1          	dc.w	3745
 664  04fe 0ec1          	dc.w	3777
 665  0500 0ee1          	dc.w	3809
 666  0502 0f01          	dc.w	3841
 667  0504 0f20          	dc.w	3872
 668  0506 0f40          	dc.w	3904
 669  0508 0f60          	dc.w	3936
 670  050a 0f80          	dc.w	3968
 671  050c 0f9f          	dc.w	3999
 672  050e 0fbf          	dc.w	4031
 673  0510 0fdf          	dc.w	4063
 674  0512 0fff          	dc.w	4095
 675  0514               _SinCard12bit2:
 676  0514 0408          	dc.w	1032
 677  0516 0420          	dc.w	1056
 678  0518 03fb          	dc.w	1019
 679  051a 03a3          	dc.w	931
 680  051c 0339          	dc.w	825
 681  051e 02e5          	dc.w	741
 682  0520 02cb          	dc.w	715
 683  0522 02fa          	dc.w	762
 684  0524 0364          	dc.w	868
 685  0526 03e4          	dc.w	996
 686  0528 0448          	dc.w	1096
 687  052a 0465          	dc.w	1125
 688  052c 0429          	dc.w	1065
 689  052e 03a3          	dc.w	931
 690  0530 0303          	dc.w	771
 691  0532 0285          	dc.w	645
 692  0534 0262          	dc.w	610
 693  0536 02b2          	dc.w	690
 694  0538 0364          	dc.w	868
 695  053a 043c          	dc.w	1084
 696  053c 04e9          	dc.w	1257
 697  053e 051b          	dc.w	1307
 698  0540 04aa          	dc.w	1194
 699  0542 03a3          	dc.w	931
 700  0544 0255          	dc.w	597
 701  0546 0138          	dc.w	312
 702  0548 00cf          	dc.w	207
 703  054a 017d          	dc.w	381
 704  054c 0364          	dc.w	868
 705  054e 064d          	dc.w	1613
 706  0550 09b5          	dc.w	2485
 707  0552 0ce6          	dc.w	3302
 708  0554 0f2b          	dc.w	3883
 709  0556 0fff          	dc.w	4095
 710  0558 0f2b          	dc.w	3883
 711  055a 0ce6          	dc.w	3302
 712  055c 09b5          	dc.w	2485
 713  055e 064d          	dc.w	1613
 714  0560 0364          	dc.w	868
 715  0562 017d          	dc.w	381
 716  0564 00cf          	dc.w	207
 717  0566 0138          	dc.w	312
 718  0568 0255          	dc.w	597
 719  056a 03a3          	dc.w	931
 720  056c 04aa          	dc.w	1194
 721  056e 051b          	dc.w	1307
 722  0570 04e9          	dc.w	1257
 723  0572 043c          	dc.w	1084
 724  0574 0364          	dc.w	868
 725  0576 02b2          	dc.w	690
 726  0578 0262          	dc.w	610
 727  057a 0285          	dc.w	645
 728  057c 0303          	dc.w	771
 729  057e 03a3          	dc.w	931
 730  0580 0429          	dc.w	1065
 731  0582 0465          	dc.w	1125
 732  0584 0448          	dc.w	1096
 733  0586 03e4          	dc.w	996
 734  0588 0364          	dc.w	868
 735  058a 02fa          	dc.w	762
 736  058c 02cb          	dc.w	715
 737  058e 02e5          	dc.w	741
 738  0590 0339          	dc.w	825
 739  0592 03a3          	dc.w	931
 740  0594 03fb          	dc.w	1019
 741  0596               _Triang12bit2:
 742  0596 0000          	dc.w	0
 743  0598 0078          	dc.w	120
 744  059a 00f0          	dc.w	240
 745  059c 0168          	dc.w	360
 746  059e 01e0          	dc.w	480
 747  05a0 0258          	dc.w	600
 748  05a2 02d0          	dc.w	720
 749  05a4 0348          	dc.w	840
 750  05a6 03c0          	dc.w	960
 751  05a8 0438          	dc.w	1080
 752  05aa 04b0          	dc.w	1200
 753  05ac 0528          	dc.w	1320
 754  05ae 05a0          	dc.w	1440
 755  05b0 0618          	dc.w	1560
 756  05b2 0690          	dc.w	1680
 757  05b4 0708          	dc.w	1800
 758  05b6 0780          	dc.w	1920
 759  05b8 07f8          	dc.w	2040
 760  05ba 0870          	dc.w	2160
 761  05bc 08e8          	dc.w	2280
 762  05be 0960          	dc.w	2400
 763  05c0 09d8          	dc.w	2520
 764  05c2 0a50          	dc.w	2640
 765  05c4 0ac8          	dc.w	2760
 766  05c6 0b40          	dc.w	2880
 767  05c8 0bb8          	dc.w	3000
 768  05ca 0c30          	dc.w	3120
 769  05cc 0ca8          	dc.w	3240
 770  05ce 0d20          	dc.w	3360
 771  05d0 0d98          	dc.w	3480
 772  05d2 0e10          	dc.w	3600
 773  05d4 0e88          	dc.w	3720
 774  05d6 0f00          	dc.w	3840
 775  05d8 0e88          	dc.w	3720
 776  05da 0e10          	dc.w	3600
 777  05dc 0d98          	dc.w	3480
 778  05de 0d20          	dc.w	3360
 779  05e0 0ca8          	dc.w	3240
 780  05e2 0c30          	dc.w	3120
 781  05e4 0bb8          	dc.w	3000
 782  05e6 0b40          	dc.w	2880
 783  05e8 0ac8          	dc.w	2760
 784  05ea 0a50          	dc.w	2640
 785  05ec 09d8          	dc.w	2520
 786  05ee 0960          	dc.w	2400
 787  05f0 08e8          	dc.w	2280
 788  05f2 0870          	dc.w	2160
 789  05f4 07f8          	dc.w	2040
 790  05f6 0780          	dc.w	1920
 791  05f8 0708          	dc.w	1800
 792  05fa 0690          	dc.w	1680
 793  05fc 0618          	dc.w	1560
 794  05fe 05a0          	dc.w	1440
 795  0600 0528          	dc.w	1320
 796  0602 04b0          	dc.w	1200
 797  0604 0438          	dc.w	1080
 798  0606 03c0          	dc.w	960
 799  0608 0348          	dc.w	840
 800  060a 02d0          	dc.w	720
 801  060c 0258          	dc.w	600
 802  060e 01e0          	dc.w	480
 803  0610 0168          	dc.w	360
 804  0612 00f0          	dc.w	240
 805  0614 0078          	dc.w	120
 806  0616 003c          	dc.w	60
 807  0618               _Sinus12bit2:
 808  0618 07ff          	dc.w	2047
 809  061a 08c1          	dc.w	2241
 810  061c 097f          	dc.w	2431
 811  061e 0a3b          	dc.w	2619
 812  0620 0af1          	dc.w	2801
 813  0622 0ba1          	dc.w	2977
 814  0624 0c47          	dc.w	3143
 815  0626 0ce3          	dc.w	3299
 816  0628 0d75          	dc.w	3445
 817  062a 0df7          	dc.w	3575
 818  062c 0e6d          	dc.w	3693
 819  062e 0ed3          	dc.w	3795
 820  0630 0f29          	dc.w	3881
 821  0632 0f6d          	dc.w	3949
 822  0634 0f9f          	dc.w	3999
 823  0636 0fc1          	dc.w	4033
 824  0638 0fcf          	dc.w	4047
 825  063a 0fc9          	dc.w	4041
 826  063c 0fb3          	dc.w	4019
 827  063e 0f89          	dc.w	3977
 828  0640 0f4d          	dc.w	3917
 829  0642 0eff          	dc.w	3839
 830  0644 0ea1          	dc.w	3745
 831  0646 0e35          	dc.w	3637
 832  0648 0db7          	dc.w	3511
 833  064a 0d2d          	dc.w	3373
 834  064c 0c97          	dc.w	3223
 835  064e 0bf5          	dc.w	3061
 836  0650 0b49          	dc.w	2889
 837  0652 0a97          	dc.w	2711
 838  0654 09dd          	dc.w	2525
 839  0656 091f          	dc.w	2335
 840  0658 085f          	dc.w	2143
 841  065a 079f          	dc.w	1951
 842  065c 06df          	dc.w	1759
 843  065e 0621          	dc.w	1569
 844  0660 0567          	dc.w	1383
 845  0662 04b5          	dc.w	1205
 846  0664 0409          	dc.w	1033
 847  0666 0367          	dc.w	871
 848  0668 02d1          	dc.w	721
 849  066a 0247          	dc.w	583
 850  066c 01c9          	dc.w	457
 851  066e 015d          	dc.w	349
 852  0670 00ff          	dc.w	255
 853  0672 00b1          	dc.w	177
 854  0674 0075          	dc.w	117
 855  0676 004b          	dc.w	75
 856  0678 0035          	dc.w	53
 857  067a 002f          	dc.w	47
 858  067c 003d          	dc.w	61
 859  067e 005f          	dc.w	95
 860  0680 0091          	dc.w	145
 861  0682 00d5          	dc.w	213
 862  0684 012b          	dc.w	299
 863  0686 0191          	dc.w	401
 864  0688 0207          	dc.w	519
 865  068a 0289          	dc.w	649
 866  068c 031b          	dc.w	795
 867  068e 03b7          	dc.w	951
 868  0690 045d          	dc.w	1117
 869  0692 050d          	dc.w	1293
 870  0694 05c3          	dc.w	1475
 871  0696 067f          	dc.w	1663
 872  0698 073d          	dc.w	1853
 873  069a               _Square12bit2:
 874  069a 0fff          	dc.w	4095
 875  069c 0fff          	dc.w	4095
 876  069e 0fff          	dc.w	4095
 877  06a0 0fff          	dc.w	4095
 878  06a2 0fff          	dc.w	4095
 879  06a4 0fff          	dc.w	4095
 880  06a6 0fff          	dc.w	4095
 881  06a8 0fff          	dc.w	4095
 882  06aa 0fff          	dc.w	4095
 883  06ac 0fff          	dc.w	4095
 884  06ae 0fff          	dc.w	4095
 885  06b0 0fff          	dc.w	4095
 886  06b2 0fff          	dc.w	4095
 887  06b4 0fff          	dc.w	4095
 888  06b6 0fff          	dc.w	4095
 889  06b8 0fff          	dc.w	4095
 890  06ba 0fff          	dc.w	4095
 891  06bc 0fff          	dc.w	4095
 892  06be 0fff          	dc.w	4095
 893  06c0 0fff          	dc.w	4095
 894  06c2 0fff          	dc.w	4095
 895  06c4 0fff          	dc.w	4095
 896  06c6 0fff          	dc.w	4095
 897  06c8 0fff          	dc.w	4095
 898  06ca 0fff          	dc.w	4095
 899  06cc 0fff          	dc.w	4095
 900  06ce 0fff          	dc.w	4095
 901  06d0 0fff          	dc.w	4095
 902  06d2 0fff          	dc.w	4095
 903  06d4 0fff          	dc.w	4095
 904  06d6 0fff          	dc.w	4095
 905  06d8 0fff          	dc.w	4095
 906  06da 0000          	dc.w	0
 907  06dc 0000          	dc.w	0
 908  06de 0000          	dc.w	0
 909  06e0 0000          	dc.w	0
 910  06e2 0000          	dc.w	0
 911  06e4 0000          	dc.w	0
 912  06e6 0000          	dc.w	0
 913  06e8 0000          	dc.w	0
 914  06ea 0000          	dc.w	0
 915  06ec 0000          	dc.w	0
 916  06ee 0000          	dc.w	0
 917  06f0 0000          	dc.w	0
 918  06f2 0000          	dc.w	0
 919  06f4 0000          	dc.w	0
 920  06f6 0000          	dc.w	0
 921  06f8 0000          	dc.w	0
 922  06fa 0000          	dc.w	0
 923  06fc 0000          	dc.w	0
 924  06fe 0000          	dc.w	0
 925  0700 0000          	dc.w	0
 926  0702 0000          	dc.w	0
 927  0704 0000          	dc.w	0
 928  0706 0000          	dc.w	0
 929  0708 0000          	dc.w	0
 930  070a 0000          	dc.w	0
 931  070c 0000          	dc.w	0
 932  070e 0000          	dc.w	0
 933  0710 0000          	dc.w	0
 934  0712 0000          	dc.w	0
 935  0714 0000          	dc.w	0
 936  0716 0000          	dc.w	0
 937  0718 0000          	dc.w	0
 938  071a 0000          	ds.b	2
 939  071c               _SawTooth12bit2:
 940  071c 0000          	dc.w	0
 941  071e 003f          	dc.w	63
 942  0720 007e          	dc.w	126
 943  0722 00be          	dc.w	190
 944  0724 00fd          	dc.w	253
 945  0726 013d          	dc.w	317
 946  0728 017c          	dc.w	380
 947  072a 01bc          	dc.w	444
 948  072c 01fb          	dc.w	507
 949  072e 023b          	dc.w	571
 950  0730 027a          	dc.w	634
 951  0732 02ba          	dc.w	698
 952  0734 02f9          	dc.w	761
 953  0736 0339          	dc.w	825
 954  0738 0378          	dc.w	888
 955  073a 03b8          	dc.w	952
 956  073c 03f7          	dc.w	1015
 957  073e 0437          	dc.w	1079
 958  0740 0476          	dc.w	1142
 959  0742 04b6          	dc.w	1206
 960  0744 04f5          	dc.w	1269
 961  0746 0535          	dc.w	1333
 962  0748 0574          	dc.w	1396
 963  074a 05b4          	dc.w	1460
 964  074c 05f3          	dc.w	1523
 965  074e 0633          	dc.w	1587
 966  0750 0672          	dc.w	1650
 967  0752 06b2          	dc.w	1714
 968  0754 06f1          	dc.w	1777
 969  0756 0731          	dc.w	1841
 970  0758 0770          	dc.w	1904
 971  075a 07b0          	dc.w	1968
 972  075c 07ef          	dc.w	2031
 973  075e 082f          	dc.w	2095
 974  0760 086e          	dc.w	2158
 975  0762 08ae          	dc.w	2222
 976  0764 08ed          	dc.w	2285
 977  0766 092d          	dc.w	2349
 978  0768 096c          	dc.w	2412
 979  076a 09ac          	dc.w	2476
 980  076c 09eb          	dc.w	2539
 981  076e 0a2b          	dc.w	2603
 982  0770 0a6a          	dc.w	2666
 983  0772 0aaa          	dc.w	2730
 984  0774 0ae9          	dc.w	2793
 985  0776 0b28          	dc.w	2856
 986  0778 0b68          	dc.w	2920
 987  077a 0ba7          	dc.w	2983
 988  077c 0be7          	dc.w	3047
 989  077e 0c26          	dc.w	3110
 990  0780 0c66          	dc.w	3174
 991  0782 0ca5          	dc.w	3237
 992  0784 0ce5          	dc.w	3301
 993  0786 0d24          	dc.w	3364
 994  0788 0d64          	dc.w	3428
 995  078a 0da3          	dc.w	3491
 996  078c 0de3          	dc.w	3555
 997  078e 0e22          	dc.w	3618
 998  0790 0e62          	dc.w	3682
 999  0792 0ea1          	dc.w	3745
1000  0794 0ee1          	dc.w	3809
1001  0796 0f20          	dc.w	3872
1002  0798 0f60          	dc.w	3936
1003  079a 0f9f          	dc.w	3999
1004  079c 0fdf          	dc.w	4063
1005  079e               _Square12p5percent:
1006  079e 0fff          	dc.w	4095
1007  07a0 0000          	dc.w	0
1008  07a2 0000          	dc.w	0
1009  07a4 0000          	dc.w	0
1010  07a6 0000          	dc.w	0
1011  07a8 0000          	dc.w	0
1012  07aa 0000          	dc.w	0
1013  07ac 0000          	dc.w	0
1014  07ae               _Square25percent:
1015  07ae 0fff          	dc.w	4095
1016  07b0 0fff          	dc.w	4095
1017  07b2 0000          	dc.w	0
1018  07b4 0000          	dc.w	0
1019  07b6 0000          	dc.w	0
1020  07b8 0000          	dc.w	0
1021  07ba 0000          	dc.w	0
1022  07bc 0000          	dc.w	0
1023  07be               _Square37p5percent:
1024  07be 0fff          	dc.w	4095
1025  07c0 0fff          	dc.w	4095
1026  07c2 0fff          	dc.w	4095
1027  07c4 0000          	dc.w	0
1028  07c6 0000          	dc.w	0
1029  07c8 0000          	dc.w	0
1030  07ca 0000          	dc.w	0
1031  07cc 0000          	dc.w	0
1032  07ce               _Square50percent:
1033  07ce 0fff          	dc.w	4095
1034  07d0 0fff          	dc.w	4095
1035  07d2 0fff          	dc.w	4095
1036  07d4 0fff          	dc.w	4095
1037  07d6 0000          	dc.w	0
1038  07d8 0000          	dc.w	0
1039  07da 0000          	dc.w	0
1040  07dc 0000          	dc.w	0
1041  07de               _Square62p5percent:
1042  07de 0fff          	dc.w	4095
1043  07e0 0fff          	dc.w	4095
1044  07e2 0fff          	dc.w	4095
1045  07e4 0fff          	dc.w	4095
1046  07e6 0fff          	dc.w	4095
1047  07e8 0000          	dc.w	0
1048  07ea 0000          	dc.w	0
1049  07ec 0000          	dc.w	0
1050  07ee               _Square75percent:
1051  07ee 0fff          	dc.w	4095
1052  07f0 0fff          	dc.w	4095
1053  07f2 0fff          	dc.w	4095
1054  07f4 0fff          	dc.w	4095
1055  07f6 0fff          	dc.w	4095
1056  07f8 0fff          	dc.w	4095
1057  07fa 0000          	dc.w	0
1058  07fc 0000          	dc.w	0
1059  07fe               _Square87p5percent:
1060  07fe 0fff          	dc.w	4095
1061  0800 0fff          	dc.w	4095
1062  0802 0fff          	dc.w	4095
1063  0804 0fff          	dc.w	4095
1064  0806 0fff          	dc.w	4095
1065  0808 0fff          	dc.w	4095
1066  080a 0fff          	dc.w	4095
1067  080c 0000          	dc.w	0
1068  080e               _PWMTabSize:
1069  080e 08            	dc.b	8
1070  080f 04            	dc.b	4
1071  0810 08            	dc.b	8
1072  0811 02            	dc.b	2
1073  0812 08            	dc.b	8
1074  0813 04            	dc.b	4
1075  0814 08            	dc.b	8
1076  0815               _PWMTabDiv:
1077  0815 03            	dc.b	3
1078  0816 02            	dc.b	2
1079  0817 03            	dc.b	3
1080  0818 01            	dc.b	1
1081  0819 03            	dc.b	3
1082  081a 02            	dc.b	2
1083  081b 03            	dc.b	3
1084  081c               _PWMTabVal:
1085  081c 0c            	dc.b	12
1086  081d 19            	dc.b	25
1087  081e 25            	dc.b	37
1088  081f 32            	dc.b	50
1089  0820 3e            	dc.b	62
1090  0821 4b            	dc.b	75
1091  0822 57            	dc.b	87
1092  0823               _WavesTabPWM:
1093  0823 079e          	dc.w	_Square12p5percent
1094  0825 07ae          	dc.w	_Square25percent
1095  0827 07be          	dc.w	_Square37p5percent
1096  0829 07ce          	dc.w	_Square50percent
1097  082b 07de          	dc.w	_Square62p5percent
1098  082d 07ee          	dc.w	_Square75percent
1099  082f 07fe          	dc.w	_Square87p5percent
1100  0831               _WavesTab65:
1101  0831 0596          	dc.w	_Triang12bit2
1102  0833 069a          	dc.w	_Square12bit2
1103  0835 0514          	dc.w	_SinCard12bit2
1104  0837 0618          	dc.w	_Sinus12bit2
1105  0839 071c          	dc.w	_SawTooth12bit2
1106  083b 0000          	ds.b	2
1107  083d               _WavesTab130:
1108  083d 0104          	dc.w	_Triang12bit
1109  083f 030c          	dc.w	_Square12bit
1110  0841 0000          	dc.w	_SinCard12bit
1111  0843 0208          	dc.w	_Sinus12bit
1112  0845 0410          	dc.w	_SawTooth12bit
1113  0847 0000          	ds.b	2
1114  0849               _PSCTab:
1115  0849 07            	dc.b	7
1116  084a 07            	dc.b	7
1117  084b 07            	dc.b	7
1118  084c 07            	dc.b	7
1119  084d 06            	dc.b	6
1120  084e 06            	dc.b	6
1121  084f 06            	dc.b	6
1122  0850 06            	dc.b	6
1123  0851 06            	dc.b	6
1124  0852 06            	dc.b	6
1125  0853 06            	dc.b	6
1126  0854 06            	dc.b	6
1127  0855 05            	dc.b	5
1128  0856 05            	dc.b	5
1129  0857 05            	dc.b	5
1130  0858 05            	dc.b	5
1131  0859 05            	dc.b	5
1132  085a 05            	dc.b	5
1133  085b 05            	dc.b	5
1134  085c 05            	dc.b	5
1135  085d 05            	dc.b	5
1136  085e 05            	dc.b	5
1137  085f 05            	dc.b	5
1138  0860 05            	dc.b	5
1139  0861 05            	dc.b	5
1140  0862 05            	dc.b	5
1141  0863 05            	dc.b	5
1142  0864 04            	dc.b	4
1143  0865 04            	dc.b	4
1144  0866 04            	dc.b	4
1145  0867 04            	dc.b	4
1146  0868 04            	dc.b	4
1147  0869 04            	dc.b	4
1148  086a 04            	dc.b	4
1149  086b 04            	dc.b	4
1150  086c 04            	dc.b	4
1151  086d 04            	dc.b	4
1152  086e 04            	dc.b	4
1153  086f 04            	dc.b	4
1154  0870 04            	dc.b	4
1155  0871 04            	dc.b	4
1156  0872 04            	dc.b	4
1157  0873 04            	dc.b	4
1158  0874 04            	dc.b	4
1159  0875 04            	dc.b	4
1160  0876 04            	dc.b	4
1161  0877 04            	dc.b	4
1162  0878 04            	dc.b	4
1163  0879 04            	dc.b	4
1164  087a 04            	dc.b	4
1165  087b 04            	dc.b	4
1166  087c 04            	dc.b	4
1167  087d 04            	dc.b	4
1168  087e 04            	dc.b	4
1169  087f 04            	dc.b	4
1170  0880 04            	dc.b	4
1171  0881 04            	dc.b	4
1172  0882 03            	dc.b	3
1173  0883 03            	dc.b	3
1174  0884 03            	dc.b	3
1175  0885 03            	dc.b	3
1176  0886 03            	dc.b	3
1177  0887 03            	dc.b	3
1178  0888 03            	dc.b	3
1179  0889 03            	dc.b	3
1180  088a 03            	dc.b	3
1181  088b 03            	dc.b	3
1182  088c 03            	dc.b	3
1183  088d 03            	dc.b	3
1184  088e 03            	dc.b	3
1185  088f 03            	dc.b	3
1186  0890 03            	dc.b	3
1187  0891 03            	dc.b	3
1188  0892 03            	dc.b	3
1189  0893 03            	dc.b	3
1190  0894 03            	dc.b	3
1191  0895 03            	dc.b	3
1192  0896 03            	dc.b	3
1193  0897 03            	dc.b	3
1194  0898 03            	dc.b	3
1195  0899 03            	dc.b	3
1196  089a 03            	dc.b	3
1197  089b 03            	dc.b	3
1198  089c 03            	dc.b	3
1199  089d 03            	dc.b	3
1200  089e 03            	dc.b	3
1201  089f 03            	dc.b	3
1202  08a0 03            	dc.b	3
1203  08a1 03            	dc.b	3
1204  08a2 03            	dc.b	3
1205  08a3 03            	dc.b	3
1206  08a4 03            	dc.b	3
1207  08a5 03            	dc.b	3
1208  08a6 03            	dc.b	3
1209  08a7 03            	dc.b	3
1210  08a8 03            	dc.b	3
1211  08a9 03            	dc.b	3
1212  08aa 03            	dc.b	3
1213  08ab 03            	dc.b	3
1214  08ac 03            	dc.b	3
1215  08ad 03            	dc.b	3
1216  08ae 03            	dc.b	3
1217  08af 03            	dc.b	3
1218  08b0 03            	dc.b	3
1219  08b1 03            	dc.b	3
1220  08b2 03            	dc.b	3
1221  08b3 03            	dc.b	3
1222  08b4 03            	dc.b	3
1223  08b5 03            	dc.b	3
1224  08b6 03            	dc.b	3
1225  08b7 03            	dc.b	3
1226  08b8 03            	dc.b	3
1227  08b9 03            	dc.b	3
1228  08ba 03            	dc.b	3
1229  08bb 03            	dc.b	3
1230  08bc 03            	dc.b	3
1231  08bd 03            	dc.b	3
1232  08be 02            	dc.b	2
1233  08bf 02            	dc.b	2
1234  08c0 02            	dc.b	2
1235  08c1 02            	dc.b	2
1236  08c2 02            	dc.b	2
1237  08c3 02            	dc.b	2
1238  08c4 02            	dc.b	2
1239  08c5 02            	dc.b	2
1240  08c6 02            	dc.b	2
1241  08c7 02            	dc.b	2
1242  08c8 02            	dc.b	2
1243  08c9 02            	dc.b	2
1244  08ca 02            	dc.b	2
1245  08cb 02            	dc.b	2
1246  08cc 02            	dc.b	2
1247  08cd 02            	dc.b	2
1248  08ce 02            	dc.b	2
1249  08cf 02            	dc.b	2
1250  08d0 02            	dc.b	2
1251  08d1 02            	dc.b	2
1252  08d2 02            	dc.b	2
1253  08d3 02            	dc.b	2
1254  08d4 02            	dc.b	2
1255  08d5 02            	dc.b	2
1256  08d6 02            	dc.b	2
1257  08d7 02            	dc.b	2
1258  08d8 02            	dc.b	2
1259  08d9 02            	dc.b	2
1260  08da 02            	dc.b	2
1261  08db 02            	dc.b	2
1262  08dc 02            	dc.b	2
1263  08dd 02            	dc.b	2
1264  08de 02            	dc.b	2
1265  08df 02            	dc.b	2
1266  08e0 02            	dc.b	2
1267  08e1 02            	dc.b	2
1268  08e2 02            	dc.b	2
1269  08e3 02            	dc.b	2
1270  08e4 02            	dc.b	2
1271  08e5 02            	dc.b	2
1272  08e6 02            	dc.b	2
1273  08e7 02            	dc.b	2
1274  08e8 02            	dc.b	2
1275  08e9 02            	dc.b	2
1276  08ea 02            	dc.b	2
1277  08eb 02            	dc.b	2
1278  08ec 02            	dc.b	2
1279  08ed 02            	dc.b	2
1280  08ee 02            	dc.b	2
1281  08ef 02            	dc.b	2
1282  08f0 02            	dc.b	2
1283  08f1 02            	dc.b	2
1284  08f2 02            	dc.b	2
1285  08f3 02            	dc.b	2
1286  08f4 02            	dc.b	2
1287  08f5 02            	dc.b	2
1288  08f6 02            	dc.b	2
1289  08f7 02            	dc.b	2
1290  08f8 02            	dc.b	2
1291  08f9 02            	dc.b	2
1292  08fa 02            	dc.b	2
1293  08fb 02            	dc.b	2
1294  08fc 02            	dc.b	2
1295  08fd 02            	dc.b	2
1296  08fe 02            	dc.b	2
1297  08ff 02            	dc.b	2
1298  0900 02            	dc.b	2
1299  0901 02            	dc.b	2
1300  0902 02            	dc.b	2
1301  0903 02            	dc.b	2
1302  0904 02            	dc.b	2
1303  0905 02            	dc.b	2
1304  0906 02            	dc.b	2
1305  0907 02            	dc.b	2
1306  0908 02            	dc.b	2
1307  0909 02            	dc.b	2
1308  090a 02            	dc.b	2
1309  090b 02            	dc.b	2
1310  090c 02            	dc.b	2
1311  090d 02            	dc.b	2
1312  090e 02            	dc.b	2
1313  090f 02            	dc.b	2
1314  0910 02            	dc.b	2
1315  0911 02            	dc.b	2
1316  0912 02            	dc.b	2
1317  0913 02            	dc.b	2
1318  0914 02            	dc.b	2
1319  0915 02            	dc.b	2
1320  0916 02            	dc.b	2
1321  0917 02            	dc.b	2
1322  0918 02            	dc.b	2
1323  0919 02            	dc.b	2
1324  091a 02            	dc.b	2
1325  091b 02            	dc.b	2
1326  091c 02            	dc.b	2
1327  091d 02            	dc.b	2
1328  091e 02            	dc.b	2
1329  091f 02            	dc.b	2
1330  0920 02            	dc.b	2
1331  0921 02            	dc.b	2
1332  0922 02            	dc.b	2
1333  0923 02            	dc.b	2
1334  0924 02            	dc.b	2
1335  0925               _ARRTab:
1336  0925 f0            	dc.b	240
1337  0926 c0            	dc.b	192
1338  0927 a0            	dc.b	160
1339  0928 89            	dc.b	137
1340  0929 f0            	dc.b	240
1341  092a d6            	dc.b	214
1342  092b c0            	dc.b	192
1343  092c af            	dc.b	175
1344  092d a0            	dc.b	160
1345  092e 94            	dc.b	148
1346  092f 89            	dc.b	137
1347  0930 80            	dc.b	128
1348  0931 f0            	dc.b	240
1349  0932 e2            	dc.b	226
1350  0933 d6            	dc.b	214
1351  0934 ca            	dc.b	202
1352  0935 c0            	dc.b	192
1353  0936 b7            	dc.b	183
1354  0937 af            	dc.b	175
1355  0938 a7            	dc.b	167
1356  0939 a0            	dc.b	160
1357  093a 9a            	dc.b	154
1358  093b 94            	dc.b	148
1359  093c 8e            	dc.b	142
1360  093d 89            	dc.b	137
1361  093e 85            	dc.b	133
1362  093f 80            	dc.b	128
1363  0940 f8            	dc.b	248
1364  0941 f0            	dc.b	240
1365  0942 e9            	dc.b	233
1366  0943 e2            	dc.b	226
1367  0944 dc            	dc.b	220
1368  0945 d6            	dc.b	214
1369  0946 d0            	dc.b	208
1370  0947 ca            	dc.b	202
1371  0948 c5            	dc.b	197
1372  0949 c0            	dc.b	192
1373  094a bc            	dc.b	188
1374  094b b7            	dc.b	183
1375  094c b3            	dc.b	179
1376  094d af            	dc.b	175
1377  094e ab            	dc.b	171
1378  094f a7            	dc.b	167
1379  0950 a4            	dc.b	164
1380  0951 a0            	dc.b	160
1381  0952 9d            	dc.b	157
1382  0953 9a            	dc.b	154
1383  0954 97            	dc.b	151
1384  0955 94            	dc.b	148
1385  0956 91            	dc.b	145
1386  0957 8e            	dc.b	142
1387  0958 8c            	dc.b	140
1388  0959 89            	dc.b	137
1389  095a 87            	dc.b	135
1390  095b 85            	dc.b	133
1391  095c 82            	dc.b	130
1392  095d 80            	dc.b	128
1393  095e fc            	dc.b	252
1394  095f f8            	dc.b	248
1395  0960 f4            	dc.b	244
1396  0961 f0            	dc.b	240
1397  0962 ed            	dc.b	237
1398  0963 e9            	dc.b	233
1399  0964 e6            	dc.b	230
1400  0965 e2            	dc.b	226
1401  0966 df            	dc.b	223
1402  0967 dc            	dc.b	220
1403  0968 d9            	dc.b	217
1404  0969 d6            	dc.b	214
1405  096a d3            	dc.b	211
1406  096b d0            	dc.b	208
1407  096c cd            	dc.b	205
1408  096d ca            	dc.b	202
1409  096e c8            	dc.b	200
1410  096f c5            	dc.b	197
1411  0970 c3            	dc.b	195
1412  0971 c0            	dc.b	192
1413  0972 be            	dc.b	190
1414  0973 bc            	dc.b	188
1415  0974 b9            	dc.b	185
1416  0975 b7            	dc.b	183
1417  0976 b5            	dc.b	181
1418  0977 b3            	dc.b	179
1419  0978 b1            	dc.b	177
1420  0979 af            	dc.b	175
1421  097a ad            	dc.b	173
1422  097b ab            	dc.b	171
1423  097c a9            	dc.b	169
1424  097d a7            	dc.b	167
1425  097e a5            	dc.b	165
1426  097f a4            	dc.b	164
1427  0980 a2            	dc.b	162
1428  0981 a0            	dc.b	160
1429  0982 9f            	dc.b	159
1430  0983 9d            	dc.b	157
1431  0984 9b            	dc.b	155
1432  0985 9a            	dc.b	154
1433  0986 98            	dc.b	152
1434  0987 97            	dc.b	151
1435  0988 95            	dc.b	149
1436  0989 94            	dc.b	148
1437  098a 93            	dc.b	147
1438  098b 91            	dc.b	145
1439  098c 90            	dc.b	144
1440  098d 8e            	dc.b	142
1441  098e 8d            	dc.b	141
1442  098f 8c            	dc.b	140
1443  0990 8b            	dc.b	139
1444  0991 89            	dc.b	137
1445  0992 88            	dc.b	136
1446  0993 87            	dc.b	135
1447  0994 86            	dc.b	134
1448  0995 85            	dc.b	133
1449  0996 83            	dc.b	131
1450  0997 82            	dc.b	130
1451  0998 81            	dc.b	129
1452  0999 80            	dc.b	128
1453  099a fe            	dc.b	254
1454  099b fc            	dc.b	252
1455  099c fa            	dc.b	250
1456  099d f8            	dc.b	248
1457  099e f6            	dc.b	246
1458  099f f4            	dc.b	244
1459  09a0 f2            	dc.b	242
1460  09a1 f0            	dc.b	240
1461  09a2 ef            	dc.b	239
1462  09a3 ed            	dc.b	237
1463  09a4 eb            	dc.b	235
1464  09a5 e9            	dc.b	233
1465  09a6 e7            	dc.b	231
1466  09a7 e6            	dc.b	230
1467  09a8 e4            	dc.b	228
1468  09a9 e2            	dc.b	226
1469  09aa e1            	dc.b	225
1470  09ab df            	dc.b	223
1471  09ac dd            	dc.b	221
1472  09ad dc            	dc.b	220
1473  09ae da            	dc.b	218
1474  09af d9            	dc.b	217
1475  09b0 d7            	dc.b	215
1476  09b1 d6            	dc.b	214
1477  09b2 d4            	dc.b	212
1478  09b3 d3            	dc.b	211
1479  09b4 d1            	dc.b	209
1480  09b5 d0            	dc.b	208
1481  09b6 cf            	dc.b	207
1482  09b7 cd            	dc.b	205
1483  09b8 cc            	dc.b	204
1484  09b9 ca            	dc.b	202
1485  09ba c9            	dc.b	201
1486  09bb c8            	dc.b	200
1487  09bc c7            	dc.b	199
1488  09bd c5            	dc.b	197
1489  09be c4            	dc.b	196
1490  09bf c3            	dc.b	195
1491  09c0 c2            	dc.b	194
1492  09c1 c0            	dc.b	192
1493  09c2 bf            	dc.b	191
1494  09c3 be            	dc.b	190
1495  09c4 bd            	dc.b	189
1496  09c5 bc            	dc.b	188
1497  09c6 ba            	dc.b	186
1498  09c7 b9            	dc.b	185
1499  09c8 b8            	dc.b	184
1500  09c9 b7            	dc.b	183
1501  09ca b6            	dc.b	182
1502  09cb b5            	dc.b	181
1503  09cc b4            	dc.b	180
1504  09cd b3            	dc.b	179
1505  09ce b2            	dc.b	178
1506  09cf b1            	dc.b	177
1507  09d0 b0            	dc.b	176
1508  09d1 af            	dc.b	175
1509  09d2 ae            	dc.b	174
1510  09d3 ad            	dc.b	173
1511  09d4 ac            	dc.b	172
1512  09d5 ab            	dc.b	171
1513  09d6 aa            	dc.b	170
1514  09d7 a9            	dc.b	169
1515  09d8 a8            	dc.b	168
1516  09d9 a7            	dc.b	167
1517  09da a6            	dc.b	166
1518  09db a5            	dc.b	165
1519  09dc a4            	dc.b	164
1520  09dd a3            	dc.b	163
1521  09de a2            	dc.b	162
1522  09df a1            	dc.b	161
1523  09e0 a0            	dc.b	160
1524  09e1 9f            	dc.b	159
1525  09e2 9e            	dc.b	158
1526  09e3 9d            	dc.b	157
1527  09e4 9c            	dc.b	156
1528  09e5 9b            	dc.b	155
1529  09e6 9a            	dc.b	154
1530  09e7 99            	dc.b	153
1531  09e8 98            	dc.b	152
1532  09e9 97            	dc.b	151
1533  09ea 96            	dc.b	150
1534  09eb 95            	dc.b	149
1535  09ec 94            	dc.b	148
1536  09ed 93            	dc.b	147
1537  09ee 92            	dc.b	146
1538  09ef 91            	dc.b	145
1539  09f0 90            	dc.b	144
1540  09f1 8f            	dc.b	143
1541  09f2 8e            	dc.b	142
1542  09f3 8d            	dc.b	141
1543  09f4 8c            	dc.b	140
1544  09f5 8b            	dc.b	139
1545  09f6 8a            	dc.b	138
1546  09f7 89            	dc.b	137
1547  09f8 88            	dc.b	136
1548  09f9 87            	dc.b	135
1549  09fa 86            	dc.b	134
1550  09fb 85            	dc.b	133
1551  09fc 84            	dc.b	132
1552  09fd 83            	dc.b	131
1553  09fe 82            	dc.b	130
1554  09ff 81            	dc.b	129
1555  0a00 80            	dc.b	128
1556  0a01               _FreqTab:
1557  0a01 04            	dc.b	4
1558  0a02 05            	dc.b	5
1559  0a03 06            	dc.b	6
1560  0a04 07            	dc.b	7
1561  0a05 08            	dc.b	8
1562  0a06 09            	dc.b	9
1563  0a07 0a            	dc.b	10
1564  0a08 0b            	dc.b	11
1565  0a09 0c            	dc.b	12
1566  0a0a 0d            	dc.b	13
1567  0a0b 0e            	dc.b	14
1568  0a0c 0f            	dc.b	15
1569  0a0d 10            	dc.b	16
1570  0a0e 11            	dc.b	17
1571  0a0f 12            	dc.b	18
1572  0a10 13            	dc.b	19
1573  0a11 14            	dc.b	20
1574  0a12 15            	dc.b	21
1575  0a13 16            	dc.b	22
1576  0a14 17            	dc.b	23
1577  0a15 18            	dc.b	24
1578  0a16 19            	dc.b	25
1579  0a17 1a            	dc.b	26
1580  0a18 1b            	dc.b	27
1581  0a19 1c            	dc.b	28
1582  0a1a 1d            	dc.b	29
1583  0a1b 1e            	dc.b	30
1584  0a1c 1f            	dc.b	31
1585  0a1d 20            	dc.b	32
1586  0a1e 21            	dc.b	33
1587  0a1f 22            	dc.b	34
1588  0a20 23            	dc.b	35
1589  0a21 24            	dc.b	36
1590  0a22 25            	dc.b	37
1591  0a23 26            	dc.b	38
1592  0a24 27            	dc.b	39
1593  0a25 28            	dc.b	40
1594  0a26 29            	dc.b	41
1595  0a27 2a            	dc.b	42
1596  0a28 2b            	dc.b	43
1597  0a29 2c            	dc.b	44
1598  0a2a 2d            	dc.b	45
1599  0a2b 2e            	dc.b	46
1600  0a2c 2f            	dc.b	47
1601  0a2d 30            	dc.b	48
1602  0a2e 31            	dc.b	49
1603  0a2f 32            	dc.b	50
1604  0a30 33            	dc.b	51
1605  0a31 34            	dc.b	52
1606  0a32 35            	dc.b	53
1607  0a33 36            	dc.b	54
1608  0a34 37            	dc.b	55
1609  0a35 38            	dc.b	56
1610  0a36 39            	dc.b	57
1611  0a37 3a            	dc.b	58
1612  0a38 3b            	dc.b	59
1613  0a39 3c            	dc.b	60
1614  0a3a 3d            	dc.b	61
1615  0a3b 3e            	dc.b	62
1616  0a3c 3f            	dc.b	63
1617  0a3d 40            	dc.b	64
1618  0a3e 41            	dc.b	65
1619  0a3f 42            	dc.b	66
1620  0a40 43            	dc.b	67
1621  0a41 44            	dc.b	68
1622  0a42 45            	dc.b	69
1623  0a43 46            	dc.b	70
1624  0a44 47            	dc.b	71
1625  0a45 48            	dc.b	72
1626  0a46 49            	dc.b	73
1627  0a47 4a            	dc.b	74
1628  0a48 4b            	dc.b	75
1629  0a49 4c            	dc.b	76
1630  0a4a 4d            	dc.b	77
1631  0a4b 4e            	dc.b	78
1632  0a4c 4f            	dc.b	79
1633  0a4d 50            	dc.b	80
1634  0a4e 51            	dc.b	81
1635  0a4f 52            	dc.b	82
1636  0a50 53            	dc.b	83
1637  0a51 54            	dc.b	84
1638  0a52 55            	dc.b	85
1639  0a53 56            	dc.b	86
1640  0a54 57            	dc.b	87
1641  0a55 58            	dc.b	88
1642  0a56 59            	dc.b	89
1643  0a57 5a            	dc.b	90
1644  0a58 5b            	dc.b	91
1645  0a59 5c            	dc.b	92
1646  0a5a 5d            	dc.b	93
1647  0a5b 5e            	dc.b	94
1648  0a5c 5f            	dc.b	95
1649  0a5d 60            	dc.b	96
1650  0a5e 61            	dc.b	97
1651  0a5f 62            	dc.b	98
1652  0a60 63            	dc.b	99
1653  0a61 64            	dc.b	100
1654  0a62 65            	dc.b	101
1655  0a63 66            	dc.b	102
1656  0a64 67            	dc.b	103
1657  0a65 68            	dc.b	104
1658  0a66 69            	dc.b	105
1659  0a67 6a            	dc.b	106
1660  0a68 6b            	dc.b	107
1661  0a69 6c            	dc.b	108
1662  0a6a 6d            	dc.b	109
1663  0a6b 6e            	dc.b	110
1664  0a6c 6f            	dc.b	111
1665  0a6d 70            	dc.b	112
1666  0a6e 71            	dc.b	113
1667  0a6f 72            	dc.b	114
1668  0a70 73            	dc.b	115
1669  0a71 74            	dc.b	116
1670  0a72 75            	dc.b	117
1671  0a73 76            	dc.b	118
1672  0a74 77            	dc.b	119
1673  0a75 78            	dc.b	120
1674  0a76 79            	dc.b	121
1675  0a77 7a            	dc.b	122
1676  0a78 7b            	dc.b	123
1677  0a79 7c            	dc.b	124
1678  0a7a 7d            	dc.b	125
1679  0a7b 7e            	dc.b	126
1680  0a7c 7f            	dc.b	127
1681  0a7d 80            	dc.b	128
1682  0a7e 81            	dc.b	129
1683  0a7f 82            	dc.b	130
1684  0a80 83            	dc.b	131
1685  0a81 84            	dc.b	132
1686  0a82 85            	dc.b	133
1687  0a83 86            	dc.b	134
1688  0a84 87            	dc.b	135
1689  0a85 88            	dc.b	136
1690  0a86 89            	dc.b	137
1691  0a87 8a            	dc.b	138
1692  0a88 8b            	dc.b	139
1693  0a89 8c            	dc.b	140
1694  0a8a 8d            	dc.b	141
1695  0a8b 8e            	dc.b	142
1696  0a8c 8f            	dc.b	143
1697  0a8d 90            	dc.b	144
1698  0a8e 91            	dc.b	145
1699  0a8f 92            	dc.b	146
1700  0a90 93            	dc.b	147
1701  0a91 94            	dc.b	148
1702  0a92 95            	dc.b	149
1703  0a93 96            	dc.b	150
1704  0a94 97            	dc.b	151
1705  0a95 98            	dc.b	152
1706  0a96 99            	dc.b	153
1707  0a97 9a            	dc.b	154
1708  0a98 9b            	dc.b	155
1709  0a99 9c            	dc.b	156
1710  0a9a 9d            	dc.b	157
1711  0a9b 9e            	dc.b	158
1712  0a9c 9f            	dc.b	159
1713  0a9d a0            	dc.b	160
1714  0a9e a1            	dc.b	161
1715  0a9f a2            	dc.b	162
1716  0aa0 a3            	dc.b	163
1717  0aa1 a4            	dc.b	164
1718  0aa2 a5            	dc.b	165
1719  0aa3 a6            	dc.b	166
1720  0aa4 a7            	dc.b	167
1721  0aa5 a8            	dc.b	168
1722  0aa6 a9            	dc.b	169
1723  0aa7 aa            	dc.b	170
1724  0aa8 ab            	dc.b	171
1725  0aa9 ac            	dc.b	172
1726  0aaa ad            	dc.b	173
1727  0aab ae            	dc.b	174
1728  0aac af            	dc.b	175
1729  0aad b0            	dc.b	176
1730  0aae b1            	dc.b	177
1731  0aaf b2            	dc.b	178
1732  0ab0 b3            	dc.b	179
1733  0ab1 b4            	dc.b	180
1734  0ab2 b5            	dc.b	181
1735  0ab3 b6            	dc.b	182
1736  0ab4 b7            	dc.b	183
1737  0ab5 b8            	dc.b	184
1738  0ab6 b9            	dc.b	185
1739  0ab7 ba            	dc.b	186
1740  0ab8 bc            	dc.b	188
1741  0ab9 bd            	dc.b	189
1742  0aba be            	dc.b	190
1743  0abb bf            	dc.b	191
1744  0abc c0            	dc.b	192
1745  0abd c2            	dc.b	194
1746  0abe c3            	dc.b	195
1747  0abf c4            	dc.b	196
1748  0ac0 c5            	dc.b	197
1749  0ac1 c7            	dc.b	199
1750  0ac2 c8            	dc.b	200
1751  0ac3 c9            	dc.b	201
1752  0ac4 ca            	dc.b	202
1753  0ac5 cc            	dc.b	204
1754  0ac6 cd            	dc.b	205
1755  0ac7 cf            	dc.b	207
1756  0ac8 d0            	dc.b	208
1757  0ac9 d1            	dc.b	209
1758  0aca d3            	dc.b	211
1759  0acb d4            	dc.b	212
1760  0acc d6            	dc.b	214
1761  0acd d7            	dc.b	215
1762  0ace d9            	dc.b	217
1763  0acf da            	dc.b	218
1764  0ad0 dc            	dc.b	220
1765  0ad1 dd            	dc.b	221
1766  0ad2 df            	dc.b	223
1767  0ad3 e1            	dc.b	225
1768  0ad4 e2            	dc.b	226
1769  0ad5 e4            	dc.b	228
1770  0ad6 e6            	dc.b	230
1771  0ad7 e7            	dc.b	231
1772  0ad8 e9            	dc.b	233
1773  0ad9 eb            	dc.b	235
1774  0ada ed            	dc.b	237
1775  0adb ef            	dc.b	239
1776  0adc f0            	dc.b	240
1777  0add               _IntREF_const:
1778  0add 004c7b38      	dc.l	5012280
1779                     	bsct
1780  0000               _wave_type:
1781  0000 00            	dc.b	0
1782  0001               _wave_type_old:
1783  0001 00            	dc.b	0
1784  0002               _display_loop:
1785  0002 00            	dc.b	0
1786  0003               _sample_size:
1787  0003 82            	dc.b	130
1788  0004               _btn_delay_start:
1789  0004 00            	dc.b	0
1790  0005               _req_freq:
1791  0005 00db          	dc.w	219
1792  0007               _req_freq_PWM:
1793  0007 0206          	dc.w	518
1794  0009               _req_duty_PWM:
1795  0009 0001          	dc.w	1
1796  000b               _calc_freq:
1797  000b 00000000      	dc.l	0
1798  000f               _button_pressed:
1799  000f 01            	dc.b	1
1800  0010               _frequency_duty_sel:
1801  0010 03            	dc.b	3
1802  0011               _frequency_duty_sel_old:
1803  0011 03            	dc.b	3
1804  0012               _calc_freq16:
1805  0012 0000          	dc.w	0
1806  0014               _VDD:
1807  0014 0000          	dc.w	0
1808  0016               _GenSignal:
1809  0016 0000          	dc.w	0
1810  0018               _GenSignal_old:
1811  0018 0000          	dc.w	0
1812  001a               _ExtVoltage:
1813  001a 0000          	dc.w	0
2086                     	switch	.const
2087  0ae1               L621:
2088  0ae1 00000082      	dc.l	130
2089  0ae5               L431:
2090  0ae5 00000041      	dc.l	65
2091  0ae9               L402:
2092  0ae9 000003e8      	dc.l	1000
2093                     ; 292 void main(void)
2093                     ; 293 {
2094                     	scross	off
2095                     .text:	section	.text,new
2096  0000               _main:
2098  0000 520f          	subw	sp,#15
2099       0000000f      OFST:	set	15
2102                     ; 295   uint8_t tmpreg1 = 0;   
2104                     ; 298   CLK_SYSCLKDivConfig(CLK_SYSCLKDiv_1);
2106  0002 4f            	clr	a
2107  0003 cd0000        	call	_CLK_SYSCLKDivConfig
2109                     ; 301   CLK_PeripheralClockConfig(CLK_Peripheral_DAC, ENABLE);
2111  0006 ae0701        	ldw	x,#1793
2112  0009 cd0000        	call	_CLK_PeripheralClockConfig
2114                     ; 303   CLK_PeripheralClockConfig(CLK_Peripheral_TIM4, ENABLE);
2116  000c ae0201        	ldw	x,#513
2117  000f cd0000        	call	_CLK_PeripheralClockConfig
2119                     ; 305   CLK_PeripheralClockConfig(CLK_Peripheral_TIM2, ENABLE);
2121  0012 ae0001        	ldw	x,#1
2122  0015 cd0000        	call	_CLK_PeripheralClockConfig
2124                     ; 307   CLK_PeripheralClockConfig(CLK_Peripheral_DMA1, ENABLE);
2126  0018 ae1401        	ldw	x,#5121
2127  001b cd0000        	call	_CLK_PeripheralClockConfig
2129                     ; 309   CLK_PeripheralClockConfig(CLK_Peripheral_TIM3, ENABLE);
2131  001e ae0101        	ldw	x,#257
2132  0021 cd0000        	call	_CLK_PeripheralClockConfig
2134                     ; 311   CLK_PeripheralClockConfig(CLK_Peripheral_ADC1, ENABLE);
2136  0024 ae1001        	ldw	x,#4097
2137  0027 cd0000        	call	_CLK_PeripheralClockConfig
2139                     ; 313   CLK_PeripheralClockConfig(CLK_Peripheral_TIM1, ENABLE);
2141  002a ae1101        	ldw	x,#4353
2142  002d cd0000        	call	_CLK_PeripheralClockConfig
2144                     ; 316   GPIO_Init(GPIOC, GPIO_Pin_1, GPIO_Mode_Out_OD_Low_Slow);
2146  0030 4b80          	push	#128
2147  0032 4b02          	push	#2
2148  0034 ae500a        	ldw	x,#20490
2149  0037 cd0000        	call	_GPIO_Init
2151  003a 85            	popw	x
2152                     ; 318   GPIO_Init(GPIOE, GPIO_Pin_6, GPIO_Mode_In_PU_No_IT);
2154  003b 4b40          	push	#64
2155  003d 4b40          	push	#64
2156  003f ae5014        	ldw	x,#20500
2157  0042 cd0000        	call	_GPIO_Init
2159  0045 85            	popw	x
2160                     ; 320   GPIO_Init(GPIOE, GPIO_Pin_7, GPIO_Mode_In_PU_No_IT);
2162  0046 4b40          	push	#64
2163  0048 4b80          	push	#128
2164  004a ae5014        	ldw	x,#20500
2165  004d cd0000        	call	_GPIO_Init
2167  0050 85            	popw	x
2168                     ; 322   GPIO_Init(GPIOA, GPIO_Pin_2, GPIO_Mode_In_PU_No_IT);
2170  0051 4b40          	push	#64
2171  0053 4b04          	push	#4
2172  0055 ae5000        	ldw	x,#20480
2173  0058 cd0000        	call	_GPIO_Init
2175  005b 85            	popw	x
2176                     ; 324   GPIO_Init(GPIOA, GPIO_Pin_3, GPIO_Mode_In_PU_No_IT);
2178  005c 4b40          	push	#64
2179  005e 4b08          	push	#8
2180  0060 ae5000        	ldw	x,#20480
2181  0063 cd0000        	call	_GPIO_Init
2183  0066 85            	popw	x
2184                     ; 326   GPIO_Init(GPIOC, GPIO_Pin_4, GPIO_Mode_In_FL_No_IT);
2186  0067 4b00          	push	#0
2187  0069 4b10          	push	#16
2188  006b ae500a        	ldw	x,#20490
2189  006e cd0000        	call	_GPIO_Init
2191  0071 85            	popw	x
2192                     ; 328   GPIO_Init(GPIOC, GPIO_Pin_7, GPIO_Mode_In_FL_No_IT);
2194  0072 4b00          	push	#0
2195  0074 4b80          	push	#128
2196  0076 ae500a        	ldw	x,#20490
2197  0079 cd0000        	call	_GPIO_Init
2199  007c 85            	popw	x
2200                     ; 330   GPIO_ResetBits(GPIOC, GPIO_Pin_1);
2202  007d 4b02          	push	#2
2203  007f ae500a        	ldw	x,#20490
2204  0082 cd0000        	call	_GPIO_ResetBits
2206  0085 84            	pop	a
2207                     ; 333   LCD_GLASS_Init();
2209  0086 cd0000        	call	_LCD_GLASS_Init
2211                     ; 335   LCD_ContrastConfig(LCD_Contrast_3V0);
2213  0089 a608          	ld	a,#8
2214  008b cd0000        	call	_LCD_ContrastConfig
2216                     ; 339   DMA1_Channel3->CCR &= (uint8_t)~(DMA_CCR_CE);
2218  008e 72115093      	bres	20627,#0
2219                     ; 341   DMA1_Channel3->CCR  = DMA_CCR_RESET_VALUE;
2221  0092 725f5093      	clr	20627
2222                     ; 343   DMA1_Channel3->CCR |= ((uint8_t)DMA_DIR_MemoryToPeripheral | (uint8_t)DMA_Mode_Circular |(uint8_t) DMA_MemoryIncMode_Inc);
2224  0096 c65093        	ld	a,20627
2225  0099 aa38          	or	a,#56
2226  009b c75093        	ld	20627,a
2227                     ; 345   DMA1_Channel3->CSPR &= (uint8_t)~(DMA_CSPR_PL | DMA_CSPR_16BM);
2229  009e c65094        	ld	a,20628
2230  00a1 a4c7          	and	a,#199
2231  00a3 c75094        	ld	20628,a
2232                     ; 347   DMA1_Channel3->CSPR |= ((uint8_t)DMA_Priority_VeryHigh |(uint8_t)DMA_MemoryDataSize_HalfWord);
2234  00a6 c65094        	ld	a,20628
2235  00a9 aa38          	or	a,#56
2236  00ab c75094        	ld	20628,a
2237                     ; 349   DMA1_Channel3->CNBTR = (uint8_t)sample_size;
2239  00ae 5500035095    	mov	20629,_sample_size
2240                     ; 351   DMA1_Channel3->CPARH = (uint8_t)(DAC_CH1RDHRH_ADDRESS >> (uint8_t)8);
2242  00b3 35535096      	mov	20630,#83
2243                     ; 352   DMA1_Channel3->CPARL = (uint8_t)(DAC_CH1RDHRH_ADDRESS);
2245  00b7 35885097      	mov	20631,#136
2246                     ; 354   DMA1_Channel3->CM0ARH = (uint8_t)(WavesTab130[wave_type] >> (uint8_t)8);
2248  00bb 5f            	clrw	x
2249  00bc b600          	ld	a,_wave_type
2250  00be 97            	ld	xl,a
2251  00bf 58            	sllw	x
2252  00c0 4f            	clr	a
2253  00c1 de083d        	ldw	x,(_WavesTab130,x)
2254  00c4 01            	rrwa	x,a
2255  00c5 9f            	ld	a,xl
2256  00c6 c75099        	ld	20633,a
2257                     ; 355   DMA1_Channel3->CM0ARL = (uint8_t)(WavesTab130[wave_type]);
2259  00c9 5f            	clrw	x
2260  00ca b600          	ld	a,_wave_type
2261  00cc 97            	ld	xl,a
2262  00cd 58            	sllw	x
2263  00ce d6083e        	ld	a,(_WavesTab130+1,x)
2264  00d1 c7509a        	ld	20634,a
2265                     ; 357   DMA1_Channel3->CCR |= DMA_CCR_CE;
2267  00d4 72105093      	bset	20627,#0
2268                     ; 359   DMA1->GCSR |= (uint8_t)DMA_GCSR_GE;
2270  00d8 72105070      	bset	20592,#0
2271                     ; 364   tmpreg1 = DAC->CH1CR1;
2273  00dc c65380        	ld	a,21376
2274                     ; 366   tmpreg1 &= (uint8_t)~(DAC_CR1_TEN | DAC_CR1_TSEL );
2276                     ; 369   tmpreg1 &= (uint8_t)~(DAC_CR1_BOFF);
2278  00df a4c1          	and	a,#193
2279                     ; 371   tmpreg1 |= (uint8_t)(DAC_CR1_TEN | DAC_Trigger_T4_TRGO) ;
2281  00e1 aa04          	or	a,#4
2282  00e3 6b0f          	ld	(OFST+0,sp),a
2283                     ; 373   DAC->CH1CR1 = tmpreg1;
2285  00e5 c75380        	ld	21376,a
2286                     ; 375   DAC->CH1CR1 |= DAC_CR1_EN;
2288  00e8 72105380      	bset	21376,#0
2289                     ; 376   DAC->CH1CR2 |= DAC_CR2_DMAEN;
2291  00ec 72185381      	bset	21377,#4
2292                     ; 379   TIM4_TimeBaseInit((TIM4_Prescaler_TypeDef)(PSCTab[req_freq]), (uint8_t)(ARRTab[req_freq]));
2294  00f0 be05          	ldw	x,_req_freq
2295  00f2 d60925        	ld	a,(_ARRTab,x)
2296  00f5 90be05        	ldw	y,_req_freq
2297  00f8 97            	ld	xl,a
2298  00f9 90d60849      	ld	a,(_PSCTab,y)
2299  00fd 95            	ld	xh,a
2300  00fe cd0000        	call	_TIM4_TimeBaseInit
2302                     ; 385   tmpreg1 = TIM4->CR2;
2304  0101 c652e1        	ld	a,21217
2305                     ; 387   tmpreg1 &= (uint8_t)(~TIM4_CR2_MMS);
2307  0104 a48f          	and	a,#143
2308                     ; 389   tmpreg1 |=  (uint8_t)TIM4_TRGOSource_Update;
2310  0106 aa20          	or	a,#32
2311  0108 6b0f          	ld	(OFST+0,sp),a
2312                     ; 390   TIM4->CR2 = tmpreg1;
2314  010a c752e1        	ld	21217,a
2315                     ; 393   TIM4_Cmd(ENABLE);
2317  010d a601          	ld	a,#1
2318  010f cd0000        	call	_TIM4_Cmd
2320                     ; 396   TIM3_DeInit();
2322  0112 cd0000        	call	_TIM3_DeInit
2324                     ; 397   TIM3_TimeBaseInit(TIM3_Prescaler_128, TIM3_CounterMode_Up, 0x00FA);  /* 500Hz - 2ms*/
2326  0115 ae00fa        	ldw	x,#250
2327  0118 89            	pushw	x
2328  0119 ae0700        	ldw	x,#1792
2329  011c cd0000        	call	_TIM3_TimeBaseInit
2331  011f 85            	popw	x
2332                     ; 398   TIM3_ITConfig(TIM3_IT_Update, ENABLE);
2334  0120 ae0101        	ldw	x,#257
2335  0123 cd0000        	call	_TIM3_ITConfig
2337                     ; 399   TIM3_Cmd(ENABLE);
2339  0126 a601          	ld	a,#1
2340  0128 cd0000        	call	_TIM3_Cmd
2342                     ; 403   TIM1_DeInit();
2344  012b cd0000        	call	_TIM1_DeInit
2346                     ; 404   TIM1_TimeBaseInit(TMR1_PSC, TIM1_CounterMode_Up, TMR1_PER, 0x00);     
2348  012e 4b00          	push	#0
2349  0130 ae0411        	ldw	x,#1041
2350  0133 89            	pushw	x
2351  0134 4b00          	push	#0
2352  0136 ae0080        	ldw	x,#128
2353  0139 cd0000        	call	_TIM1_TimeBaseInit
2355  013c 5b04          	addw	sp,#4
2356                     ; 405   TIM1_OC1Init(TIM1_OCMode_Timing, 
2356                     ; 406                 TIM1_OutputState_Disable, 
2356                     ; 407                 TIM1_OutputNState_Disable, 
2356                     ; 408                 TMR1_CMP, 
2356                     ; 409                 TIM1_OCPolarity_High,
2356                     ; 410                 TIM1_OCNPolarity_High,
2356                     ; 411                 TIM1_OCIdleState_Reset,
2356                     ; 412                 TIM1_OCNIdleState_Reset);
2358  013e 4b00          	push	#0
2359  0140 4b00          	push	#0
2360  0142 4b00          	push	#0
2361  0144 4b00          	push	#0
2362  0146 ae03f8        	ldw	x,#1016
2363  0149 89            	pushw	x
2364  014a 4b00          	push	#0
2365  014c 5f            	clrw	x
2366  014d cd0000        	call	_TIM1_OC1Init
2368  0150 5b07          	addw	sp,#7
2369                     ; 413   TIM1_SelectOutputTrigger(TIM1_TRGOSource_Update/*TIM1_TRGOSource_OC1REF*/);
2371  0152 a620          	ld	a,#32
2372  0154 cd0000        	call	_TIM1_SelectOutputTrigger
2374                     ; 414   TIM1_ITConfig(TIM1_IT_CC1, ENABLE);
2376  0157 ae0201        	ldw	x,#513
2377  015a cd0000        	call	_TIM1_ITConfig
2379                     ; 417   ADC_DeInit(ADC1);
2381  015d ae5340        	ldw	x,#21312
2382  0160 cd0000        	call	_ADC_DeInit
2384                     ; 418   ADC_Init(ADC1, ADC_ConversionMode_Single, ADC_Resolution_12Bit, ADC_Prescaler_1);
2386  0163 4b00          	push	#0
2387  0165 4b00          	push	#0
2388  0167 4b00          	push	#0
2389  0169 ae5340        	ldw	x,#21312
2390  016c cd0000        	call	_ADC_Init
2392  016f 5b03          	addw	sp,#3
2393                     ; 419   ADC_DMACmd(ADC1, DISABLE);
2395  0171 4b00          	push	#0
2396  0173 ae5340        	ldw	x,#21312
2397  0176 cd0000        	call	_ADC_DMACmd
2399  0179 84            	pop	a
2400                     ; 421   ADC_VrefintCmd(ENABLE);
2402  017a a601          	ld	a,#1
2403  017c cd0000        	call	_ADC_VrefintCmd
2405                     ; 422   ADC_SchmittTriggerConfig(ADC1, ADC_Channel_4, ENABLE);
2407  017f 4b01          	push	#1
2408  0181 ae0310        	ldw	x,#784
2409  0184 89            	pushw	x
2410  0185 ae5340        	ldw	x,#21312
2411  0188 cd0000        	call	_ADC_SchmittTriggerConfig
2413  018b 5b03          	addw	sp,#3
2414                     ; 423   ADC_ChannelCmd(ADC1, ADC_Channel_Vrefint, ENABLE);        /* Read first internal voltage reference */
2416  018d 4b01          	push	#1
2417  018f ae0010        	ldw	x,#16
2418  0192 89            	pushw	x
2419  0193 ae5340        	ldw	x,#21312
2420  0196 cd0000        	call	_ADC_ChannelCmd
2422  0199 5b03          	addw	sp,#3
2423                     ; 424   ADC_ITConfig(ADC1, ADC_IT_EOC, ENABLE);
2425  019b 4b01          	push	#1
2426  019d 4b08          	push	#8
2427  019f ae5340        	ldw	x,#21312
2428  01a2 cd0000        	call	_ADC_ITConfig
2430  01a5 85            	popw	x
2431                     ; 425   ADC_ExternalTrigConfig(ADC1, ADC_ExtEventSelection_Trigger2, ADC_ExtTRGSensitivity_Rising);   /* The trigger is performed directly from Timer 1 trigger output (TIM1_TRGO) */
2433  01a6 4b20          	push	#32
2434  01a8 4b10          	push	#16
2435  01aa ae5340        	ldw	x,#21312
2436  01ad cd0000        	call	_ADC_ExternalTrigConfig
2438  01b0 a601          	ld	a,#1
2439  01b2 85            	popw	x
2440                     ; 426   TIM1_Cmd(ENABLE);
2442  01b3 cd0000        	call	_TIM1_Cmd
2444                     ; 428   enableInterrupts();
2447  01b6 9a            	rim	
2449  01b7               L351:
2450                     ; 435     if (BTN_CHG_WAVE_STATE == BTN_PRESSED && BTN_CHG_WAVE_DELAY_FLAG)
2452  01b7 b600          	ld	a,_btn_chg_wave_state
2453  01b9 4a            	dec	a
2454  01ba 2616          	jrne	L751
2456  01bc 3d00          	tnz	_btn_chg_wave_delay_flag
2457  01be 2712          	jreq	L751
2458                     ; 437       BTN_CHG_WAVE_DELAY_FLAG = 0;
2460  01c0 b700          	ld	_btn_chg_wave_delay_flag,a
2461                     ; 439       wave_type++;
2463  01c2 3c00          	inc	_wave_type
2464                     ; 440       if (wave_type == PWM+1) wave_type = 0;
2466  01c4 b600          	ld	a,_wave_type
2467  01c6 a106          	cp	a,#6
2468  01c8 2703cc0303    	jrne	L533
2471  01cd 3f00          	clr	_wave_type
2472                     ; 441       button_pressed = TRUE;
2474  01cf cc0303        	jp	L533
2475  01d2               L751:
2476                     ; 443     else if(BTN_FREQ_INC_STATE == BTN_PRESSED && BTN_FREQ_INC_DELAY_FLAG)
2478  01d2 b600          	ld	a,_btn_freq_inc_state
2479  01d4 4a            	dec	a
2480  01d5 2703cc025d    	jrne	L561
2482  01da 3d00          	tnz	_btn_freq_inc_delay_flag
2483  01dc 277f          	jreq	L561
2484                     ; 445       BTN_FREQ_INC_DELAY_FLAG = 0;
2486  01de b700          	ld	_btn_freq_inc_delay_flag,a
2487                     ; 447       if(wave_type == PWM)
2489  01e0 b600          	ld	a,_wave_type
2490  01e2 a105          	cp	a,#5
2491  01e4 2645          	jrne	L761
2492                     ; 449         if(frequency_duty_sel == DUTY)
2494  01e6 b610          	ld	a,_frequency_duty_sel
2495  01e8 a104          	cp	a,#4
2496  01ea 260d          	jrne	L171
2497                     ; 451           if(req_duty_PWM  < 6) req_duty_PWM++;    /* req_duty_PWM = [0:6] */
2499  01ec be09          	ldw	x,_req_duty_PWM
2500  01ee a30006        	cpw	x,#6
2501  01f1 24dc          	jruge	L533
2504  01f3 5c            	incw	x
2505  01f4 bf09          	ldw	_req_duty_PWM,x
2506  01f6 cc0303        	jra	L533
2507  01f9               L171:
2508                     ; 455           if(BTN_FREQ_INC_PRESS_TIMER < BTN_DELAY_1_SEC)
2510  01f9 be00          	ldw	x,_btn_freq_inc_press_tmr
2511  01fb a301f4        	cpw	x,#500
2512  01fe 240b          	jruge	L771
2513                     ; 458             if(req_freq_PWM < 1022) req_freq_PWM++;  /* max 15384Hz - DAC limitation */
2515  0200 be07          	ldw	x,_req_freq_PWM
2516  0202 a303fe        	cpw	x,#1022
2517  0205 24ef          	jruge	L533
2520  0207 5c            	incw	x
2521  0208 cc02b0        	jp	LC007
2522  020b               L771:
2523                     ; 460           else if(BTN_FREQ_INC_PRESS_TIMER < BTN_DELAY_2_5_SEC)
2525  020b a304e2        	cpw	x,#1250
2526  020e be07          	ldw	x,_req_freq_PWM
2527  0210 240b          	jruge	L502
2528                     ; 463             if(req_freq_PWM + 10 <= 1022) req_freq_PWM += 10;
2530  0212 1c000a        	addw	x,#10
2531  0215 a303ff        	cpw	x,#1023
2532  0218 240b          	jruge	L512
2535  021a cc02b0        	jp	LC007
2536                     ; 464             else req_freq_PWM = 1022;
2537  021d               L502:
2538                     ; 469              if(req_freq_PWM + 20 <= 1022) req_freq_PWM += 20;
2540  021d 1c0014        	addw	x,#20
2541  0220 a303ff        	cpw	x,#1023
2544  0223 25f5          	jrult	LC007
2545  0225               L512:
2546                     ; 470              else req_freq_PWM = 1022;
2549  0225 ae03fe        	ldw	x,#1022
2551  0228 cc02b0        	jp	LC007
2552  022b               L761:
2553                     ; 476         if(BTN_FREQ_INC_PRESS_TIMER < BTN_DELAY_1_SEC)
2555  022b be00          	ldw	x,_btn_freq_inc_press_tmr
2556  022d a301f4        	cpw	x,#500
2557  0230 240a          	jruge	L322
2558                     ; 479           if(req_freq < 603) req_freq++;
2560  0232 be05          	ldw	x,_req_freq
2561  0234 a3025b        	cpw	x,#603
2562  0237 24bd          	jruge	L533
2565  0239 5c            	incw	x
2566  023a 201c          	jp	LC001
2567  023c               L322:
2568                     ; 481         else if(BTN_FREQ_INC_PRESS_TIMER < BTN_DELAY_2_5_SEC)
2570  023c a304e2        	cpw	x,#1250
2571  023f be05          	ldw	x,_req_freq
2572  0241 240a          	jruge	L132
2573                     ; 484           if(req_freq + 10 <= 603) req_freq += 10;
2575  0243 1c000a        	addw	x,#10
2576  0246 a3025c        	cpw	x,#604
2577  0249 240a          	jruge	L142
2580  024b 200b          	jp	LC001
2581                     ; 485           else req_freq = 603;
2582  024d               L132:
2583                     ; 490           if(req_freq + 20 <= 603) req_freq += 20;
2585  024d 1c0014        	addw	x,#20
2586  0250 a3025c        	cpw	x,#604
2589  0253 2503          	jrult	LC001
2590  0255               L142:
2591                     ; 491           else req_freq = 603;
2594  0255 ae025b        	ldw	x,#603
2595  0258               LC001:
2598  0258 bf05          	ldw	_req_freq,x
2599                     ; 494       button_pressed = TRUE;
2601  025a cc0303        	jp	L533
2602  025d               L561:
2603                     ; 496     else if(BTN_FREQ_DEC_STATE == BTN_PRESSED && BTN_FREQ_DEC_DELAY_FLAG)
2605  025d b600          	ld	a,_btn_freq_dec_state
2606  025f 4a            	dec	a
2607  0260 2703cc02e2    	jrne	L742
2609  0265 3d00          	tnz	_btn_freq_dec_delay_flag
2610  0267 2779          	jreq	L742
2611                     ; 498       BTN_FREQ_DEC_DELAY_FLAG = 0;
2613  0269 b700          	ld	_btn_freq_dec_delay_flag,a
2614                     ; 500       if(wave_type == PWM)
2616  026b b600          	ld	a,_wave_type
2617  026d a105          	cp	a,#5
2618  026f 2643          	jrne	L152
2619                     ; 502         if(frequency_duty_sel == DUTY)
2621  0271 b610          	ld	a,_frequency_duty_sel
2622  0273 a104          	cp	a,#4
2623  0275 260a          	jrne	L352
2624                     ; 504           if(req_duty_PWM  > 0) req_duty_PWM--;    /* req_duty_PWM = [0:6] */
2626  0277 be09          	ldw	x,_req_duty_PWM
2627  0279 27df          	jreq	L533
2630  027b 5a            	decw	x
2631  027c bf09          	ldw	_req_duty_PWM,x
2632  027e cc0303        	jra	L533
2633  0281               L352:
2634                     ; 508           if(BTN_FREQ_DEC_PRESS_TIMER < BTN_DELAY_1_SEC)
2636  0281 be00          	ldw	x,_btn_freq_dec_press_tmr
2637  0283 a301f4        	cpw	x,#500
2638  0286 240a          	jruge	L162
2639                     ; 511             if(req_freq_PWM > 1) req_freq_PWM--;
2641  0288 be07          	ldw	x,_req_freq_PWM
2642  028a a30002        	cpw	x,#2
2643  028d 2574          	jrult	L533
2646  028f 5a            	decw	x
2647  0290 201e          	jp	LC007
2648  0292               L162:
2649                     ; 513           else if(BTN_FREQ_DEC_PRESS_TIMER < BTN_DELAY_2_5_SEC)
2651  0292 a304e2        	cpw	x,#1250
2652  0295 be07          	ldw	x,_req_freq_PWM
2653  0297 240a          	jruge	L762
2654                     ; 516             if(req_freq_PWM > 10) req_freq_PWM -= 10;
2656  0299 a3000b        	cpw	x,#11
2657  029c 250f          	jrult	L772
2660  029e 1d000a        	subw	x,#10
2662  02a1 200d          	jp	LC007
2663                     ; 517             else req_freq_PWM = 1;
2664  02a3               L762:
2665                     ; 522             if(req_freq_PWM > 20) req_freq_PWM -= 20;
2667  02a3 a30015        	cpw	x,#21
2668  02a6 2505          	jrult	L772
2671  02a8 1d0014        	subw	x,#20
2673  02ab 2003          	jp	LC007
2674  02ad               L772:
2675                     ; 523             else req_freq_PWM = 1;
2678  02ad ae0001        	ldw	x,#1
2679  02b0               LC007:
2681  02b0 bf07          	ldw	_req_freq_PWM,x
2682  02b2 204f          	jra	L533
2683  02b4               L152:
2684                     ; 529         if(BTN_FREQ_DEC_PRESS_TIMER < BTN_DELAY_1_SEC)
2686  02b4 be00          	ldw	x,_btn_freq_dec_press_tmr
2687  02b6 a301f4        	cpw	x,#500
2688  02b9 2407          	jruge	L503
2689                     ; 532           if(req_freq > 0) req_freq--;
2691  02bb be05          	ldw	x,_req_freq
2692  02bd 2744          	jreq	L533
2695  02bf 5a            	decw	x
2696  02c0 201c          	jp	LC005
2697  02c2               L503:
2698                     ; 534         else if(BTN_FREQ_DEC_PRESS_TIMER < BTN_DELAY_2_5_SEC)
2700  02c2 a304e2        	cpw	x,#1250
2701  02c5 be05          	ldw	x,_req_freq
2702  02c7 240a          	jruge	L313
2703                     ; 537           if(req_freq >= 10) req_freq -= 10;
2705  02c9 a3000a        	cpw	x,#10
2706  02cc 250f          	jrult	L323
2709  02ce 1d000a        	subw	x,#10
2711  02d1 200b          	jp	LC005
2712                     ; 538           else req_freq = 0;
2713  02d3               L313:
2714                     ; 543           if(req_freq >= 20) req_freq -= 20;
2716  02d3 a30014        	cpw	x,#20
2717  02d6 2505          	jrult	L323
2720  02d8 1d0014        	subw	x,#20
2722  02db 2001          	jp	LC005
2723  02dd               L323:
2724                     ; 544           else req_freq = 0;
2727  02dd 5f            	clrw	x
2728  02de               LC005:
2729  02de bf05          	ldw	_req_freq,x
2730                     ; 547       button_pressed = TRUE;
2732  02e0 2021          	jp	L533
2733  02e2               L742:
2734                     ; 549     else if(BTN_FREQ_DUTY_STATE == BTN_PRESSED && BTN_FREQ_DUTY_DELAY_FLAG && wave_type == PWM)
2736  02e2 b600          	ld	a,_btn_freq_duty_state
2737  02e4 4a            	dec	a
2738  02e5 2620          	jrne	L361
2740  02e7 b600          	ld	a,_btn_freq_duty_delay_flag
2741  02e9 271c          	jreq	L361
2743  02eb b600          	ld	a,_wave_type
2744  02ed a105          	cp	a,#5
2745  02ef 2616          	jrne	L361
2746                     ; 551       BTN_FREQ_DUTY_DELAY_FLAG = 0;
2748  02f1 3f00          	clr	_btn_freq_duty_delay_flag
2749                     ; 553       if(frequency_duty_sel == FREQ) 
2751  02f3 b610          	ld	a,_frequency_duty_sel
2752  02f5 a103          	cp	a,#3
2753  02f7 2606          	jrne	L333
2754                     ; 555         frequency_duty_sel = DUTY;
2756  02f9 35040010      	mov	_frequency_duty_sel,#4
2758  02fd 2004          	jra	L533
2759  02ff               L333:
2760                     ; 560         frequency_duty_sel = FREQ;
2762  02ff 35030010      	mov	_frequency_duty_sel,#3
2763  0303               L533:
2764                     ; 563       button_pressed = TRUE;
2769  0303 3501000f      	mov	_button_pressed,#1
2771  0307               L361:
2772                     ; 566     if(button_pressed)
2774  0307 b60f          	ld	a,_button_pressed
2775  0309 2603cc065d    	jreq	L143
2776                     ; 569       TIM4->CR1 &= (uint8_t)(~TIM4_CR1_CEN);
2778  030e 721152e0      	bres	21216,#0
2779                     ; 570       LCD_GLASS_Clear();
2781  0312 cd0000        	call	_LCD_GLASS_Clear
2783                     ; 571       if(wave_type == PWM)
2785  0315 b600          	ld	a,_wave_type
2786  0317 a105          	cp	a,#5
2787  0319 2673          	jrne	L343
2788                     ; 573         uint16_t tmp_req_freq_PWM = req_freq_PWM;
2790  031b be07          	ldw	x,_req_freq_PWM
2791  031d 1f0d          	ldw	(OFST-2,sp),x
2792                     ; 575         sample_size = 8;
2794  031f 35080003      	mov	_sample_size,#8
2795                     ; 576         if(req_freq_PWM <= 896)
2797  0323 a30381        	cpw	x,#897
2798  0326 2419          	jruge	L543
2799                     ; 579           uint8_t multi128 = 0;
2801  0328 0f0f          	clr	(OFST+0,sp)
2803  032a 2007          	jra	L353
2804  032c               L743:
2805                     ; 582             tmp_req_freq_PWM -= 128;
2807  032c 1d0080        	subw	x,#128
2808  032f 1f0d          	ldw	(OFST-2,sp),x
2809                     ; 583             multi128++;
2811  0331 0c0f          	inc	(OFST+0,sp)
2812  0333               L353:
2813                     ; 580           while(tmp_req_freq_PWM > 128)
2815  0333 a30081        	cpw	x,#129
2816  0336 24f4          	jruge	L743
2817                     ; 586           TIM4->PSCR = (uint8_t)((uint8_t)7 - multi128);
2819  0338 a607          	ld	a,#7
2820  033a 100f          	sub	a,(OFST+0,sp)
2821  033c c752e8        	ld	21224,a
2823  033f 2009          	jra	L753
2824  0341               L543:
2825                     ; 590           tmp_req_freq_PWM -= 896;
2827  0341 1d0380        	subw	x,#896
2828  0344 1f0d          	ldw	(OFST-2,sp),x
2829                     ; 592           TIM4->PSCR = (uint8_t)(TIM4_Prescaler_1);
2831  0346 725f52e8      	clr	21224
2832  034a               L753:
2833                     ; 595         calc_freq = (uint32_t)16000000;                                          /* System Clock */
2835  034a ae2400        	ldw	x,#9216
2836  034d bf0d          	ldw	_calc_freq+2,x
2837  034f ae00f4        	ldw	x,#244
2838  0352 bf0b          	ldw	_calc_freq,x
2839                     ; 596         calc_freq >>= (uint8_t)(TIM4->PSCR);                                     /* divide by PSC */
2841  0354 ae000b        	ldw	x,#_calc_freq
2842  0357 c652e8        	ld	a,21224
2843  035a cd0000        	call	c_lgursh
2845                     ; 597         calc_freq >>= (uint8_t)3;                                                /* divide by sample size - length of duty cycle array*/
2847  035d a603          	ld	a,#3
2848  035f cd0000        	call	c_lgursh
2850                     ; 598         calc_freq /= (uint32_t)((uint8_t)255 - tmp_req_freq_PWM + (uint8_t)1);   /* divide by ARR */
2852  0362 ae0100        	ldw	x,#256
2853  0365 72f00d        	subw	x,(OFST-2,sp)
2854  0368 cd0000        	call	c_uitolx
2856  036b 96            	ldw	x,sp
2857  036c 5c            	incw	x
2858  036d cd0000        	call	c_rtol
2860  0370 ae000b        	ldw	x,#_calc_freq
2861  0373 cd0000        	call	c_ltor
2863  0376 96            	ldw	x,sp
2864  0377 5c            	incw	x
2865  0378 cd0000        	call	c_ludv
2867  037b ae000b        	ldw	x,#_calc_freq
2868  037e cd0000        	call	c_rtol
2870                     ; 599         calc_freq16 = (uint16_t)calc_freq;
2872  0381 be0d          	ldw	x,_calc_freq+2
2873  0383 bf12          	ldw	_calc_freq16,x
2874                     ; 601         TIM4->ARR = (uint8_t)((uint8_t)255 - tmp_req_freq_PWM + (uint8_t)1);
2876  0385 4f            	clr	a
2877  0386 100e          	sub	a,(OFST-1,sp)
2878  0388 c752e9        	ld	21225,a
2880  038b cc04ae        	jra	L163
2881  038e               L343:
2882                     ; 605         uint16_t tmp_req_freq = req_freq;
2884  038e be05          	ldw	x,_req_freq
2885  0390 1f0d          	ldw	(OFST-2,sp),x
2886                     ; 606         if(req_freq <= 219)   /* up to 240Hz - values in lookup tables */
2888  0392 a300dc        	cpw	x,#220
2889  0395 241b          	jruge	L363
2890                     ; 609           sample_size = 130;
2892  0397 35820003      	mov	_sample_size,#130
2893                     ; 611           calc_freq16 = (uint16_t)FreqTab[req_freq];
2895  039b d60a01        	ld	a,(_FreqTab,x)
2896  039e 5f            	clrw	x
2897  039f 97            	ld	xl,a
2898  03a0 bf12          	ldw	_calc_freq16,x
2899                     ; 613           TIM4_TimeBaseInit((TIM4_Prescaler_TypeDef)(PSCTab[req_freq]), (uint8_t)(ARRTab[req_freq]));
2901  03a2 be05          	ldw	x,_req_freq
2902  03a4 d60925        	ld	a,(_ARRTab,x)
2903  03a7 90be05        	ldw	y,_req_freq
2904  03aa 97            	ld	xl,a
2905  03ab 90d60849      	ld	a,(_PSCTab,y)
2908  03af cc04aa        	jp	LC010
2909  03b2               L363:
2910                     ; 615         else if(req_freq <= 347)    /* up to 480Hz */
2912  03b2 a3015c        	cpw	x,#348
2913  03b5 2456          	jruge	L763
2914                     ; 618           sample_size = 130;
2916  03b7 35820003      	mov	_sample_size,#130
2917                     ; 619           tmp_req_freq -= 219;
2919  03bb 1d00db        	subw	x,#219
2920  03be 1f0d          	ldw	(OFST-2,sp),x
2921                     ; 621           calc_freq = (uint32_t)16000000;
2923  03c0 ae2400        	ldw	x,#9216
2924  03c3 bf0d          	ldw	_calc_freq+2,x
2925  03c5 ae00f4        	ldw	x,#244
2926  03c8 bf0b          	ldw	_calc_freq,x
2927                     ; 622           calc_freq >>= 1;            /* divide by 2 (PSC = 2) */
2929  03ca 340b          	srl	_calc_freq
2930  03cc 360c          	rrc	_calc_freq+1
2931  03ce 360d          	rrc	_calc_freq+2
2932                     ; 623           calc_freq /= (uint32_t)((uint8_t)255 - tmp_req_freq + (uint8_t)1);
2934  03d0 360e          	rrc	_calc_freq+3
2935  03d2 ae0100        	ldw	x,#256
2936  03d5 72f00d        	subw	x,(OFST-2,sp)
2937  03d8 cd0000        	call	c_uitolx
2939  03db 96            	ldw	x,sp
2940  03dc 5c            	incw	x
2941  03dd cd0000        	call	c_rtol
2943  03e0 ae000b        	ldw	x,#_calc_freq
2944  03e3 cd0000        	call	c_ltor
2946  03e6 96            	ldw	x,sp
2947  03e7 5c            	incw	x
2948  03e8 cd0000        	call	c_ludv
2950  03eb ae000b        	ldw	x,#_calc_freq
2951  03ee cd0000        	call	c_rtol
2953                     ; 624           calc_freq /= sample_size;
2955  03f1 cd0000        	call	c_ltor
2957  03f4 ae0ae1        	ldw	x,#L621
2958  03f7 cd0000        	call	c_ludv
2960  03fa ae000b        	ldw	x,#_calc_freq
2961  03fd cd0000        	call	c_rtol
2963                     ; 625           calc_freq16 = (uint16_t)calc_freq;
2965  0400 be0d          	ldw	x,_calc_freq+2
2966  0402 bf12          	ldw	_calc_freq16,x
2967                     ; 627           TIM4_TimeBaseInit(TIM4_Prescaler_2, (uint8_t)(255 - tmp_req_freq + (uint8_t)1));
2969  0404 4f            	clr	a
2970  0405 100e          	sub	a,(OFST-1,sp)
2971  0407 97            	ld	xl,a
2972  0408 a601          	ld	a,#1
2975  040a cc04aa        	jp	LC010
2976  040d               L763:
2977                     ; 629         else if(req_freq <= 587)   /* up to 7239Hz */
2979  040d a3024c        	cpw	x,#588
2980  0410 2448          	jruge	L373
2981                     ; 632           sample_size = 130;
2983  0412 35820003      	mov	_sample_size,#130
2984                     ; 633           tmp_req_freq -= 347;
2986  0416 1d015b        	subw	x,#347
2987  0419 1f0d          	ldw	(OFST-2,sp),x
2988                     ; 635           calc_freq = (uint32_t)16000000;
2990  041b ae2400        	ldw	x,#9216
2991  041e bf0d          	ldw	_calc_freq+2,x
2992  0420 ae00f4        	ldw	x,#244
2993  0423 bf0b          	ldw	_calc_freq,x
2994                     ; 636           calc_freq /= (uint32_t)((uint8_t)255 - tmp_req_freq + (uint8_t)1);
2996  0425 ae0100        	ldw	x,#256
2997  0428 72f00d        	subw	x,(OFST-2,sp)
2998  042b cd0000        	call	c_uitolx
3000  042e 96            	ldw	x,sp
3001  042f 5c            	incw	x
3002  0430 cd0000        	call	c_rtol
3004  0433 ae000b        	ldw	x,#_calc_freq
3005  0436 cd0000        	call	c_ltor
3007  0439 96            	ldw	x,sp
3008  043a 5c            	incw	x
3009  043b cd0000        	call	c_ludv
3011  043e ae000b        	ldw	x,#_calc_freq
3012  0441 cd0000        	call	c_rtol
3014                     ; 637           calc_freq /= sample_size;
3016  0444 cd0000        	call	c_ltor
3018  0447 ae0ae1        	ldw	x,#L621
3019  044a cd0000        	call	c_ludv
3021  044d ae000b        	ldw	x,#_calc_freq
3022  0450 cd0000        	call	c_rtol
3024                     ; 638           calc_freq16 = (uint16_t)calc_freq;
3026  0453 be0d          	ldw	x,_calc_freq+2
3027  0455 bf12          	ldw	_calc_freq16,x
3028                     ; 640           TIM4_TimeBaseInit(TIM4_Prescaler_1, (uint8_t)(255 - tmp_req_freq + (uint8_t)1));
3030  0457 4f            	clr	a
3033  0458 204c          	jp	LC011
3034  045a               L373:
3035                     ; 642         else if(req_freq <= 603)   /* up to 14479Hz */
3037  045a a3025c        	cpw	x,#604
3038  045d 244f          	jruge	L163
3039                     ; 645           sample_size = 65;
3041  045f 35410003      	mov	_sample_size,#65
3042                     ; 646           tmp_req_freq -= 587;
3044  0463 1d024b        	subw	x,#587
3045  0466 1f0d          	ldw	(OFST-2,sp),x
3046                     ; 648           calc_freq = (uint32_t)16000000;
3048  0468 ae2400        	ldw	x,#9216
3049  046b bf0d          	ldw	_calc_freq+2,x
3050  046d ae00f4        	ldw	x,#244
3051  0470 bf0b          	ldw	_calc_freq,x
3052                     ; 649           calc_freq /= (uint32_t)((uint8_t)32 - tmp_req_freq);
3054  0472 ae0020        	ldw	x,#32
3055  0475 72f00d        	subw	x,(OFST-2,sp)
3056  0478 cd0000        	call	c_uitolx
3058  047b 96            	ldw	x,sp
3059  047c 5c            	incw	x
3060  047d cd0000        	call	c_rtol
3062  0480 ae000b        	ldw	x,#_calc_freq
3063  0483 cd0000        	call	c_ltor
3065  0486 96            	ldw	x,sp
3066  0487 5c            	incw	x
3067  0488 cd0000        	call	c_ludv
3069  048b ae000b        	ldw	x,#_calc_freq
3070  048e cd0000        	call	c_rtol
3072                     ; 650           calc_freq /= sample_size;
3074  0491 cd0000        	call	c_ltor
3076  0494 ae0ae5        	ldw	x,#L431
3077  0497 cd0000        	call	c_ludv
3079  049a ae000b        	ldw	x,#_calc_freq
3080  049d cd0000        	call	c_rtol
3082                     ; 651           calc_freq16 = (uint16_t)calc_freq;
3084  04a0 be0d          	ldw	x,_calc_freq+2
3085  04a2 bf12          	ldw	_calc_freq16,x
3086                     ; 653           TIM4_TimeBaseInit(TIM4_Prescaler_1, (uint8_t)((uint8_t)32 - tmp_req_freq));
3088  04a4 a620          	ld	a,#32
3089  04a6               LC011:
3090  04a6 100e          	sub	a,(OFST-1,sp)
3091  04a8 97            	ld	xl,a
3092  04a9 4f            	clr	a
3093  04aa               LC010:
3094  04aa 95            	ld	xh,a
3095  04ab cd0000        	call	_TIM4_TimeBaseInit
3098  04ae               L163:
3099                     ; 659       if(wave_type == PWM && frequency_duty_sel == DUTY)
3101  04ae b600          	ld	a,_wave_type
3102  04b0 a105          	cp	a,#5
3103  04b2 262e          	jrne	L304
3105  04b4 b610          	ld	a,_frequency_duty_sel
3106  04b6 a104          	cp	a,#4
3107  04b8 2628          	jrne	L304
3108                     ; 661         str[0] = 'D';
3110  04ba 35440000      	mov	_str,#68
3111                     ; 662         str[1] = 'T';
3113  04be 35540001      	mov	_str+1,#84
3114                     ; 663         str[2] = 'Y';
3116  04c2 35590002      	mov	_str+2,#89
3117                     ; 664         str[3] = ' ';  
3119  04c6 35200003      	mov	_str+3,#32
3120                     ; 665         str[5] = (unsigned char)((PWMTabVal[req_duty_PWM] % 10) + 48);
3122  04ca be09          	ldw	x,_req_duty_PWM
3123  04cc d6081c        	ld	a,(_PWMTabVal,x)
3124  04cf 5f            	clrw	x
3125  04d0 97            	ld	xl,a
3126  04d1 a60a          	ld	a,#10
3127  04d3 62            	div	x,a
3128  04d4 ab30          	add	a,#48
3129  04d6 b705          	ld	_str+5,a
3130                     ; 666         str[4] = (unsigned char)((PWMTabVal[req_duty_PWM] / 10) + 48);
3132  04d8 9f            	ld	a,xl
3133  04d9 ab30          	add	a,#48
3134  04db b704          	ld	_str+4,a
3135                     ; 667         str[6] = 0;
3137  04dd 3f06          	clr	_str+6
3139  04df cc05f6        	jra	L504
3140  04e2               L304:
3141                     ; 669       else if(wave_type < 6)
3143  04e2 b600          	ld	a,_wave_type
3144  04e4 a106          	cp	a,#6
3145  04e6 24f7          	jruge	L504
3146                     ; 672         LCD_GLASS_Clear();
3148  04e8 cd0000        	call	_LCD_GLASS_Clear
3150                     ; 673         for(i = 0; i < 5; i++)
3152  04eb 0f0e          	clr	(OFST-1,sp)
3153  04ed               L114:
3154                     ; 675           str[4-i] = (unsigned char)((calc_freq16 % 10)+48);
3156  04ed 4f            	clr	a
3157  04ee 97            	ld	xl,a
3158  04ef a604          	ld	a,#4
3159  04f1 100e          	sub	a,(OFST-1,sp)
3160  04f3 2401          	jrnc	L241
3161  04f5 5a            	decw	x
3162  04f6               L241:
3163  04f6 02            	rlwa	x,a
3164  04f7 90be12        	ldw	y,_calc_freq16
3165  04fa a60a          	ld	a,#10
3166  04fc 9062          	div	y,a
3167  04fe 905f          	clrw	y
3168  0500 9097          	ld	yl,a
3169  0502 72a90030      	addw	y,#48
3170  0506 909f          	ld	a,yl
3171  0508 e700          	ld	(_str,x),a
3172                     ; 676           calc_freq16 /= 10;
3174  050a a60a          	ld	a,#10
3175  050c be12          	ldw	x,_calc_freq16
3176  050e 62            	div	x,a
3177  050f bf12          	ldw	_calc_freq16,x
3178                     ; 673         for(i = 0; i < 5; i++)
3180  0511 0c0e          	inc	(OFST-1,sp)
3183  0513 7b0e          	ld	a,(OFST-1,sp)
3184  0515 a105          	cp	a,#5
3185  0517 25d4          	jrult	L114
3186                     ; 678         calc_freq16 = (uint16_t)calc_freq;
3188  0519 be0d          	ldw	x,_calc_freq+2
3189  051b bf12          	ldw	_calc_freq16,x
3190                     ; 679         i = 0;
3192  051d 0f0e          	clr	(OFST-1,sp)
3194  051f 2002          	jra	L324
3195  0521               L714:
3196                     ; 682           i++;
3198  0521 0c0e          	inc	(OFST-1,sp)
3199  0523               L324:
3200                     ; 680         while(str[i] == '0')
3200                     ; 681         {
3200                     ; 682           i++;
3202  0523 7b0e          	ld	a,(OFST-1,sp)
3203  0525 5f            	clrw	x
3204  0526 97            	ld	xl,a
3205  0527 e600          	ld	a,(_str,x)
3206  0529 a130          	cp	a,#48
3207  052b 27f4          	jreq	L714
3208                     ; 684         pos = 1;
3210  052d a601          	ld	a,#1
3211  052f 6b0d          	ld	(OFST-2,sp),a
3212                     ; 685         if(calc_freq16 < 1000)          /* if generated signal frequency is < 1000 HZ */
3214  0531 be12          	ldw	x,_calc_freq16
3215  0533 a303e8        	cpw	x,#1000
3216  0536 2404          	jruge	L724
3217                     ; 687           dec_place = 0;                /* place of the decimal dot */                            
3219  0538 0f0b          	clr	(OFST-4,sp)
3221  053a 2008          	jra	L134
3222  053c               L724:
3223                     ; 689         else if(calc_freq16 < 10000)    /* if generated signal frequency is < 10000 HZ */
3225  053c a32710        	cpw	x,#10000
3226                     ; 691           dec_place = 1;		  
3228  053f 2501          	jrult	LC012
3229                     ; 694 		      dec_place = 2; 
3231  0541 4c            	inc	a
3232  0542               LC012:
3234  0542 6b0b          	ld	(OFST-4,sp),a
3235  0544               L134:
3236                     ; 695         pos_cnt = 0;
3238  0544 0f0f          	clr	(OFST+0,sp)
3239                     ; 696 		    pos_cnt_flag = FALSE;
3241  0546 0f0a          	clr	(OFST-5,sp)
3243  0548 2064          	jra	L344
3244  054a               L734:
3245                     ; 699           if(pos == dec_place && dec_place != 0) 
3247  054a 7b0d          	ld	a,(OFST-2,sp)
3248  054c 110b          	cp	a,(OFST-4,sp)
3249  054e 261c          	jrne	L744
3251  0550 0d0b          	tnz	(OFST-4,sp)
3252  0552 2718          	jreq	L744
3253                     ; 701 		        LCD_GLASS_WriteChar(&(str[i]), TRUE, FALSE, pos++);
3255  0554 0c0d          	inc	(OFST-2,sp)
3256  0556 88            	push	a
3257  0557 4b00          	push	#0
3258  0559 4b01          	push	#1
3259  055b 7b11          	ld	a,(OFST+2,sp)
3260  055d ab00          	add	a,#_str
3261  055f 5f            	clrw	x
3262  0560 97            	ld	xl,a
3263  0561 cd0000        	call	_LCD_GLASS_WriteChar
3265  0564 5b03          	addw	sp,#3
3266                     ; 702 			      pos_cnt_flag = TRUE;
3268  0566 a601          	ld	a,#1
3269  0568 6b0a          	ld	(OFST-5,sp),a
3271  056a 2014          	jra	L154
3272  056c               L744:
3273                     ; 704           else LCD_GLASS_WriteChar(&(str[i]), FALSE, FALSE, pos++);
3275  056c 0c0d          	inc	(OFST-2,sp)
3276  056e 88            	push	a
3277  056f 4b00          	push	#0
3278  0571 4b00          	push	#0
3279  0573 7b11          	ld	a,(OFST+2,sp)
3280  0575 ab00          	add	a,#_str
3281  0577 5f            	clrw	x
3282  0578 97            	ld	xl,a
3283  0579 cd0000        	call	_LCD_GLASS_WriteChar
3285  057c 5b03          	addw	sp,#3
3286  057e 7b0a          	ld	a,(OFST-5,sp)
3287  0580               L154:
3288                     ; 705 		      if(pos_cnt_flag == TRUE)
3290  0580 4a            	dec	a
3291  0581 2602          	jrne	L354
3292                     ; 707 		        pos_cnt++;
3294  0583 0c0f          	inc	(OFST+0,sp)
3295  0585               L354:
3296                     ; 709 		      if(pos_cnt == 3)
3298  0585 7b0f          	ld	a,(OFST+0,sp)
3299  0587 a103          	cp	a,#3
3300  0589 2621          	jrne	L554
3301                     ; 711 		        break;
3302  058b               L544:
3303                     ; 714         if(calc_freq16 >= 1000)
3305  058b be12          	ldw	x,_calc_freq16
3306  058d a303e8        	cpw	x,#1000
3307  0590 a620          	ld	a,#32
3308  0592 2522          	jrult	L754
3309                     ; 716           tmp_char = ' ';
3311  0594 6b0c          	ld	(OFST-3,sp),a
3312                     ; 717           LCD_GLASS_WriteChar(&tmp_char, FALSE, FALSE, pos++);
3314  0596 7b0d          	ld	a,(OFST-2,sp)
3315  0598 0c0d          	inc	(OFST-2,sp)
3316  059a 88            	push	a
3317  059b 4b00          	push	#0
3318  059d 4b00          	push	#0
3319  059f 96            	ldw	x,sp
3320  05a0 1c000f        	addw	x,#OFST+0
3321  05a3 cd0000        	call	_LCD_GLASS_WriteChar
3323  05a6 5b03          	addw	sp,#3
3324                     ; 718           tmp_char = 'K';
3326  05a8 a64b          	ld	a,#75
3327                     ; 719           LCD_GLASS_WriteChar(&tmp_char, FALSE, FALSE, pos++);
3330  05aa 2036          	jp	LC013
3331  05ac               L554:
3332                     ; 697         for(; i < 5; i++)
3334  05ac 0c0e          	inc	(OFST-1,sp)
3335  05ae               L344:
3338  05ae 7b0e          	ld	a,(OFST-1,sp)
3339  05b0 a105          	cp	a,#5
3340  05b2 2596          	jrult	L734
3341  05b4 20d5          	jra	L544
3342  05b6               L754:
3343                     ; 723           tmp_char = ' ';
3345  05b6 6b0c          	ld	(OFST-3,sp),a
3346                     ; 724           LCD_GLASS_WriteChar(&tmp_char, FALSE, FALSE, pos++);
3348  05b8 7b0d          	ld	a,(OFST-2,sp)
3349  05ba 0c0d          	inc	(OFST-2,sp)
3350  05bc 88            	push	a
3351  05bd 4b00          	push	#0
3352  05bf 4b00          	push	#0
3353  05c1 96            	ldw	x,sp
3354  05c2 1c000f        	addw	x,#OFST+0
3355  05c5 cd0000        	call	_LCD_GLASS_WriteChar
3357  05c8 5b03          	addw	sp,#3
3358                     ; 725           tmp_char = 'H';
3360  05ca a648          	ld	a,#72
3361  05cc 6b0c          	ld	(OFST-3,sp),a
3362                     ; 726           LCD_GLASS_WriteChar(&tmp_char, FALSE, FALSE, pos++);        /* append "HZ" measuring unit symbol*/
3364  05ce 7b0d          	ld	a,(OFST-2,sp)
3365  05d0 0c0d          	inc	(OFST-2,sp)
3366  05d2 88            	push	a
3367  05d3 4b00          	push	#0
3368  05d5 4b00          	push	#0
3369  05d7 96            	ldw	x,sp
3370  05d8 1c000f        	addw	x,#OFST+0
3371  05db cd0000        	call	_LCD_GLASS_WriteChar
3373  05de 5b03          	addw	sp,#3
3374                     ; 727           tmp_char = 'Z';
3376  05e0 a65a          	ld	a,#90
3377                     ; 728 		      LCD_GLASS_WriteChar(&tmp_char, FALSE, FALSE, pos++);
3380  05e2               LC013:
3381  05e2 6b0c          	ld	(OFST-3,sp),a
3383  05e4 7b0d          	ld	a,(OFST-2,sp)
3384  05e6 0c0d          	inc	(OFST-2,sp)
3385  05e8 88            	push	a
3386  05e9 4b00          	push	#0
3387  05eb 4b00          	push	#0
3388  05ed 96            	ldw	x,sp
3389  05ee 1c000f        	addw	x,#OFST+0
3390  05f1 cd0000        	call	_LCD_GLASS_WriteChar
3391  05f4 5b03          	addw	sp,#3
3392  05f6               L504:
3393                     ; 733       DMA_ReInit();
3395  05f6 cd0000        	call	_DMA_ReInit
3397                     ; 735       TIM4->CR1 |= TIM4_CR1_CEN;
3399  05f9 721052e0      	bset	21216,#0
3400                     ; 737       if((wave_type!=wave_type_old) || ((frequency_duty_sel!=frequency_duty_sel_old) && (wave_type==PWM)))
3402  05fd b600          	ld	a,_wave_type
3403  05ff b101          	cp	a,_wave_type_old
3404  0601 260c          	jrne	L564
3406  0603 b610          	ld	a,_frequency_duty_sel
3407  0605 b111          	cp	a,_frequency_duty_sel_old
3408  0607 2728          	jreq	L364
3410  0609 b600          	ld	a,_wave_type
3411  060b a105          	cp	a,#5
3412  060d 2622          	jrne	L364
3413  060f               L564:
3414                     ; 739         if(wave_type < 6) LCD_GLASS_Clear();
3416  060f a106          	cp	a,#6
3417  0611 2403          	jruge	L764
3420  0613 cd0000        	call	_LCD_GLASS_Clear
3422  0616               L764:
3423                     ; 740         switch (wave_type)
3425  0616 b600          	ld	a,_wave_type
3427                     ; 763                     break;
3428  0618 2711          	jreq	L3
3429  061a 4a            	dec	a
3430  061b 2718          	jreq	L5
3431  061d 4a            	dec	a
3432  061e 271a          	jreq	L7
3433  0620 4a            	dec	a
3434  0621 271c          	jreq	L11
3435  0623 4a            	dec	a
3436  0624 271e          	jreq	L31
3437  0626 4a            	dec	a
3438  0627 2720          	jreq	L51
3439  0629 2006          	jra	L364
3440  062b               L3:
3441                     ; 742           case RAMP:
3441                     ; 743                      LCD_GLASS_DisplayString("RAMP");
3443  062b ae0b10        	ldw	x,#L574
3444  062e               LC014:
3445  062e cd0000        	call	_LCD_GLASS_DisplayString
3447                     ; 744                      break;
3448  0631               L364:
3449                     ; 766       button_pressed = FALSE;
3451  0631 3f0f          	clr	_button_pressed
3452  0633 2028          	jra	L143
3453  0635               L5:
3454                     ; 745           case SQUARE:
3454                     ; 746                      LCD_GLASS_DisplayString("SQUARE");
3456  0635 ae0b09        	ldw	x,#L774
3458                     ; 747                      break;
3460  0638 20f4          	jp	LC014
3461  063a               L7:
3462                     ; 748           case SINC: 
3462                     ; 749                      LCD_GLASS_DisplayString("SINC");
3464  063a ae0b04        	ldw	x,#L105
3466                     ; 750                      break;
3468  063d 20ef          	jp	LC014
3469  063f               L11:
3470                     ; 751           case SINE:
3470                     ; 752                      LCD_GLASS_DisplayString("SINE");
3472  063f ae0aff        	ldw	x,#L305
3474                     ; 753                      break;
3476  0642 20ea          	jp	LC014
3477  0644               L31:
3478                     ; 754           case SAW: 
3478                     ; 755                      LCD_GLASS_DisplayString("SAW");
3480  0644 ae0afb        	ldw	x,#L505
3482                     ; 756                      break;
3484  0647 20e5          	jp	LC014
3485  0649               L51:
3486                     ; 757           case PWM:
3486                     ; 758                     if(frequency_duty_sel == FREQ)
3488  0649 b610          	ld	a,_frequency_duty_sel
3489  064b a103          	cp	a,#3
3490  064d 2605          	jrne	L705
3491                     ; 759                       LCD_GLASS_DisplayString("PWMFRQ");
3493  064f ae0af4        	ldw	x,#L115
3496  0652 20da          	jp	LC014
3497  0654               L705:
3498                     ; 760                     else if(frequency_duty_sel == DUTY)
3500  0654 a104          	cp	a,#4
3501  0656 26d9          	jrne	L364
3502                     ; 761                       LCD_GLASS_DisplayString("PWMDTY");
3504  0658 ae0aed        	ldw	x,#L715
3507  065b 20d1          	jp	LC014
3508  065d               L143:
3509                     ; 769     if(ADSampRdy == TRUE && trigger_flag_60ms == TRUE)
3511  065d b600          	ld	a,_ADSampRdy
3512  065f 4a            	dec	a
3513  0660 2703cc0841    	jrne	L325
3515  0665 b600          	ld	a,_trigger_flag_60ms
3516  0667 4a            	dec	a
3517  0668 26f8          	jrne	L325
3518                     ; 771       if(adc_measurement_selector == INTREF_MEASURE)          /* new IntREF value available */
3520  066a b600          	ld	a,_adc_measurement_selector
3521  066c 2624          	jrne	L525
3522                     ; 773         VDD = (uint16_t)(IntREF_const / (uint32_t)adc_IntREF);
3524  066e be00          	ldw	x,_adc_IntREF
3525  0670 cd0000        	call	c_uitolx
3527  0673 96            	ldw	x,sp
3528  0674 5c            	incw	x
3529  0675 cd0000        	call	c_rtol
3531  0678 ae7b38        	ldw	x,#31544
3532  067b bf02          	ldw	c_lreg+2,x
3533  067d ae004c        	ldw	x,#76
3534  0680 bf00          	ldw	c_lreg,x
3535  0682 96            	ldw	x,sp
3536  0683 5c            	incw	x
3537  0684 cd0000        	call	c_ludv
3539  0687 be02          	ldw	x,c_lreg+2
3540  0689 bf14          	ldw	_VDD,x
3541                     ; 774         adc_measurement_selector = GENSIGMAX_MEASURE;
3543  068b 35010000      	mov	_adc_measurement_selector,#1
3545  068f cc083d        	jra	L725
3546  0692               L525:
3547                     ; 776       else if(adc_measurement_selector == GENSIGMAX_MEASURE)   /* new generated signal max value available */
3549  0692 a101          	cp	a,#1
3550  0694 2703cc07b5    	jrne	L135
3551                     ; 781         GenSignal = (uint16_t)(((uint32_t)VDD * (uint32_t)adc_GenSigMax) >> 12);     /* division by 4096 */
3553  0699 be14          	ldw	x,_VDD
3554  069b 90be00        	ldw	y,_adc_GenSigMax
3555  069e cd0000        	call	c_umul
3557  06a1 a60c          	ld	a,#12
3558  06a3 cd0000        	call	c_lursh
3560  06a6 be02          	ldw	x,c_lreg+2
3561  06a8 bf16          	ldw	_GenSignal,x
3562                     ; 782         temp_GenSignal = (uint32_t)GenSignal * 419;     /* scale to */
3564  06aa 90ae01a3      	ldw	y,#419
3565  06ae cd0000        	call	c_umul
3567  06b1 96            	ldw	x,sp
3568  06b2 1c0005        	addw	x,#OFST-10
3569  06b5 cd0000        	call	c_rtol
3571                     ; 783         temp_GenSignal /= 1000;                         /* compensate for ADC input divider network, result ex: 842 -> 8,42V */
3573  06b8 96            	ldw	x,sp
3574  06b9 1c0005        	addw	x,#OFST-10
3575  06bc cd0000        	call	c_ltor
3577  06bf ae0ae9        	ldw	x,#L402
3578  06c2 cd0000        	call	c_ludv
3580  06c5 96            	ldw	x,sp
3581  06c6 1c0005        	addw	x,#OFST-10
3582  06c9 cd0000        	call	c_rtol
3584                     ; 784         GenSignal = (uint16_t)temp_GenSignal;
3586  06cc 1e07          	ldw	x,(OFST-8,sp)
3587  06ce bf16          	ldw	_GenSignal,x
3588                     ; 785         delta_GenSignal = GenSignal_old - GenSignal;
3590  06d0 be18          	ldw	x,_GenSignal_old
3591  06d2 72b00016      	subw	x,_GenSignal
3592                     ; 786         if(delta_GenSignal < 0) delta_GenSignal = -delta_GenSignal;
3594  06d6 2a01          	jrpl	L335
3597  06d8 50            	negw	x
3598  06d9               L335:
3599  06d9 1f0a          	ldw	(OFST-5,sp),x
3600                     ; 787         if(delta_GenSignal > GEN_SIG_AMPL_DELTA)
3602  06db a30003        	cpw	x,#3
3603  06de 2e03cc07ae    	jrslt	L535
3604                     ; 790           calc_freq16 = GenSignal;
3606  06e3 be16          	ldw	x,_GenSignal
3607  06e5 bf12          	ldw	_calc_freq16,x
3608                     ; 791           LCD_GLASS_Clear();
3610  06e7 cd0000        	call	_LCD_GLASS_Clear
3612                     ; 792           for(i = 0; i < 5; i++)
3614  06ea 0f0e          	clr	(OFST-1,sp)
3615  06ec               L735:
3616                     ; 794             str[4-i] = (unsigned char)((calc_freq16 % 10)+48);
3618  06ec 4f            	clr	a
3619  06ed 97            	ld	xl,a
3620  06ee a604          	ld	a,#4
3621  06f0 100e          	sub	a,(OFST-1,sp)
3622  06f2 2401          	jrnc	L012
3623  06f4 5a            	decw	x
3624  06f5               L012:
3625  06f5 02            	rlwa	x,a
3626  06f6 90be12        	ldw	y,_calc_freq16
3627  06f9 a60a          	ld	a,#10
3628  06fb 9062          	div	y,a
3629  06fd 905f          	clrw	y
3630  06ff 9097          	ld	yl,a
3631  0701 72a90030      	addw	y,#48
3632  0705 909f          	ld	a,yl
3633  0707 e700          	ld	(_str,x),a
3634                     ; 795             calc_freq16 /= 10;
3636  0709 a60a          	ld	a,#10
3637  070b be12          	ldw	x,_calc_freq16
3638  070d 62            	div	x,a
3639  070e bf12          	ldw	_calc_freq16,x
3640                     ; 792           for(i = 0; i < 5; i++)
3642  0710 0c0e          	inc	(OFST-1,sp)
3645  0712 7b0e          	ld	a,(OFST-1,sp)
3646  0714 a105          	cp	a,#5
3647  0716 25d4          	jrult	L735
3648                     ; 797           i = 0;
3650  0718 0f0e          	clr	(OFST-1,sp)
3652  071a 2002          	jra	L155
3653  071c               L545:
3654                     ; 800             i++;
3656  071c 0c0e          	inc	(OFST-1,sp)
3657  071e               L155:
3658                     ; 798           while(str[i] == '0')
3658                     ; 799           {
3658                     ; 800             i++;
3660  071e 7b0e          	ld	a,(OFST-1,sp)
3661  0720 5f            	clrw	x
3662  0721 97            	ld	xl,a
3663  0722 e600          	ld	a,(_str,x)
3664  0724 a130          	cp	a,#48
3665  0726 27f4          	jreq	L545
3666                     ; 802           pos = 1;
3668  0728 a601          	ld	a,#1
3669  072a 6b0d          	ld	(OFST-2,sp),a
3670                     ; 803           if(GenSignal < 100)
3672  072c be16          	ldw	x,_GenSignal
3673  072e a30064        	cpw	x,#100
3674  0731 241a          	jruge	L555
3675                     ; 805 		        dec_place = 1;    
3677  0733 6b09          	ld	(OFST-6,sp),a
3678                     ; 806             tmp_char = '0';                                         /* place of the decimal dot */
3680  0735 a630          	ld	a,#48
3681  0737 6b0c          	ld	(OFST-3,sp),a
3682                     ; 807             LCD_GLASS_WriteChar(&tmp_char, TRUE, FALSE, pos++);     /* if generated signal maximum is < 1V start with a 0 */
3684  0739 7b0d          	ld	a,(OFST-2,sp)
3685  073b 0c0d          	inc	(OFST-2,sp)
3686  073d 88            	push	a
3687  073e 4b00          	push	#0
3688  0740 4b01          	push	#1
3689  0742 96            	ldw	x,sp
3690  0743 1c000f        	addw	x,#OFST+0
3691  0746 cd0000        	call	_LCD_GLASS_WriteChar
3693  0749 5b03          	addw	sp,#3
3695  074b 202d          	jra	L175
3696  074d               L555:
3697                     ; 809           else if(GenSignal < 1000)
3699  074d a303e8        	cpw	x,#1000
3700                     ; 810             dec_place = 1;              
3702  0750 2501          	jrult	LC015
3703                     ; 811           else dec_place = 2; 
3705  0752 4c            	inc	a
3706  0753               LC015:
3708  0753 6b09          	ld	(OFST-6,sp),a
3709  0755 2023          	jra	L175
3710  0757               L565:
3711                     ; 814 		        if(pos == dec_place) LCD_GLASS_WriteChar(&str[i], TRUE, FALSE, pos++);
3713  0757 7b0d          	ld	a,(OFST-2,sp)
3714  0759 1109          	cp	a,(OFST-6,sp)
3715  075b 2609          	jrne	L575
3718  075d 0c0d          	inc	(OFST-2,sp)
3719  075f 88            	push	a
3720  0760 4b00          	push	#0
3721  0762 4b01          	push	#1
3724  0764 2007          	jra	L775
3725  0766               L575:
3726                     ; 815 			      else LCD_GLASS_WriteChar(&str[i], FALSE, FALSE, pos++);
3728  0766 0c0d          	inc	(OFST-2,sp)
3729  0768 88            	push	a
3730  0769 4b00          	push	#0
3731  076b 4b00          	push	#0
3733  076d               L775:
3734  076d 7b11          	ld	a,(OFST+2,sp)
3735  076f ab00          	add	a,#_str
3736  0771 5f            	clrw	x
3737  0772 97            	ld	xl,a
3738  0773 cd0000        	call	_LCD_GLASS_WriteChar
3739  0776 5b03          	addw	sp,#3
3740                     ; 812           for(; i < 5; i++)
3742  0778 0c0e          	inc	(OFST-1,sp)
3743  077a               L175:
3746  077a 7b0e          	ld	a,(OFST-1,sp)
3747  077c a105          	cp	a,#5
3748  077e 25d7          	jrult	L565
3749                     ; 817           tmp_char = ' ';
3751  0780 a620          	ld	a,#32
3752  0782 6b0c          	ld	(OFST-3,sp),a
3753                     ; 818           LCD_GLASS_WriteChar(&tmp_char, FALSE, FALSE, pos++);
3755  0784 7b0d          	ld	a,(OFST-2,sp)
3756  0786 0c0d          	inc	(OFST-2,sp)
3757  0788 88            	push	a
3758  0789 4b00          	push	#0
3759  078b 4b00          	push	#0
3760  078d 96            	ldw	x,sp
3761  078e 1c000f        	addw	x,#OFST+0
3762  0791 cd0000        	call	_LCD_GLASS_WriteChar
3764  0794 5b03          	addw	sp,#3
3765                     ; 819           tmp_char = 'V';
3767  0796 a656          	ld	a,#86
3768  0798 6b0c          	ld	(OFST-3,sp),a
3769                     ; 820 		      LCD_GLASS_WriteChar(&tmp_char, FALSE, FALSE, pos);        /* append "V" measuring unit symbol*/
3771  079a 7b0d          	ld	a,(OFST-2,sp)
3772  079c 88            	push	a
3773  079d 4b00          	push	#0
3774  079f 4b00          	push	#0
3775  07a1 96            	ldw	x,sp
3776  07a2 1c000f        	addw	x,#OFST+0
3777  07a5 cd0000        	call	_LCD_GLASS_WriteChar
3779  07a8 5b03          	addw	sp,#3
3780                     ; 821           GenSignal_old = GenSignal;
3782  07aa be16          	ldw	x,_GenSignal
3783  07ac bf18          	ldw	_GenSignal_old,x
3784  07ae               L535:
3785                     ; 823         adc_measurement_selector = EXTVOLTAGE_MEASURE;
3787  07ae 35020000      	mov	_adc_measurement_selector,#2
3789  07b2 cc083d        	jra	L725
3790  07b5               L135:
3791                     ; 825       else if(adc_measurement_selector == EXTVOLTAGE_MEASURE)      /* new external voltage value available */
3793  07b5 a102          	cp	a,#2
3794  07b7 26f9          	jrne	L725
3795                     ; 829         ExtVoltage = (uint16_t)(((uint32_t)VDD * (uint32_t)adc_extVoltage) >> 12);
3797  07b9 be14          	ldw	x,_VDD
3798  07bb 90be00        	ldw	y,_adc_extVoltage
3799  07be cd0000        	call	c_umul
3801  07c1 a60c          	ld	a,#12
3802  07c3 cd0000        	call	c_lursh
3804  07c6 be02          	ldw	x,c_lreg+2
3805  07c8 bf1a          	ldw	_ExtVoltage,x
3806                     ; 830         temp_ExtVoltage = (uint32_t)ExtVoltage * 419;             /* scale to */
3808  07ca 90ae01a3      	ldw	y,#419
3809  07ce cd0000        	call	c_umul
3811  07d1 96            	ldw	x,sp
3812  07d2 1c000b        	addw	x,#OFST-4
3813  07d5 cd0000        	call	c_rtol
3815                     ; 831         temp_ExtVoltage /= 1000;                                  /* compensate for ADC input divider network, result ex: 842 -> 8,42V */
3817  07d8 96            	ldw	x,sp
3818  07d9 1c000b        	addw	x,#OFST-4
3819  07dc cd0000        	call	c_ltor
3821  07df ae0ae9        	ldw	x,#L402
3822  07e2 cd0000        	call	c_ludv
3824  07e5 96            	ldw	x,sp
3825  07e6 1c000b        	addw	x,#OFST-4
3826  07e9 cd0000        	call	c_rtol
3828                     ; 832         ExtVoltage = (uint16_t)temp_ExtVoltage;
3830  07ec 1e0d          	ldw	x,(OFST-2,sp)
3831  07ee bf1a          	ldw	_ExtVoltage,x
3832                     ; 833         l_delta_Voltage_Signal = ExtVoltage - GenSignal;
3834  07f0 72b00016      	subw	x,_GenSignal
3835  07f4 1f09          	ldw	(OFST-6,sp),x
3836                     ; 834         if(l_delta_Voltage_Signal < 0)
3838  07f6 2a2b          	jrpl	L506
3839                     ; 838           LCD_GLASS_Clear();
3841  07f8 cd0000        	call	_LCD_GLASS_Clear
3843                     ; 839           tmp_char = 'E';
3845  07fb a645          	ld	a,#69
3846  07fd 6b08          	ld	(OFST-7,sp),a
3847                     ; 840 		      LCD_GLASS_WriteChar(&tmp_char, FALSE, FALSE, 1);
3849  07ff 4b01          	push	#1
3850  0801 4b00          	push	#0
3851  0803 4b00          	push	#0
3852  0805 96            	ldw	x,sp
3853  0806 1c000b        	addw	x,#OFST-4
3854  0809 cd0000        	call	_LCD_GLASS_WriteChar
3856  080c 5b03          	addw	sp,#3
3857                     ; 841           tmp_char = '1';
3859  080e a631          	ld	a,#49
3860  0810 6b08          	ld	(OFST-7,sp),a
3861                     ; 842 		      LCD_GLASS_WriteChar(&tmp_char, FALSE, FALSE, 2);
3863  0812 4b02          	push	#2
3864  0814 4b00          	push	#0
3865  0816 4b00          	push	#0
3866  0818 96            	ldw	x,sp
3867  0819 1c000b        	addw	x,#OFST-4
3868  081c cd0000        	call	_LCD_GLASS_WriteChar
3870  081f 5b03          	addw	sp,#3
3872  0821 2018          	jra	L706
3873  0823               L506:
3874                     ; 844         else if(l_delta_Voltage_Signal < DELTA_VOLTAGE_SIGNAL)
3876  0823 a3008a        	cpw	x,#138
3877  0826 2e0a          	jrsge	L116
3878                     ; 847           GPIO_ResetBits(GPIOC, GPIO_Pin_1);
3880  0828 4b02          	push	#2
3881  082a ae500a        	ldw	x,#20490
3882  082d cd0000        	call	_GPIO_ResetBits
3885  0830 2008          	jp	LC016
3886  0832               L116:
3887                     ; 852           GPIO_SetBits(GPIOC, GPIO_Pin_1);
3889  0832 4b02          	push	#2
3890  0834 ae500a        	ldw	x,#20490
3891  0837 cd0000        	call	_GPIO_SetBits
3893  083a               LC016:
3894  083a 84            	pop	a
3895  083b               L706:
3896                     ; 854        adc_measurement_selector = INTREF_MEASURE;
3898  083b 3f00          	clr	_adc_measurement_selector
3899  083d               L725:
3900                     ; 856       ADSampRdy = FALSE;
3902  083d 3f00          	clr	_ADSampRdy
3903                     ; 857       trigger_flag_60ms = FALSE;
3905  083f 3f00          	clr	_trigger_flag_60ms
3906  0841               L325:
3907                     ; 859     wave_type_old = wave_type;
3909  0841 450001        	mov	_wave_type_old,_wave_type
3910                     ; 860     frequency_duty_sel_old = frequency_duty_sel;
3912  0844 451011        	mov	_frequency_duty_sel_old,_frequency_duty_sel
3914  0847 cc01b7        	jra	L351
3943                     ; 864 void DMA_ReInit()
3943                     ; 865 {
3944                     .text:	section	.text,new
3945  0000               _DMA_ReInit:
3949                     ; 867   DMA1->GCSR &= (uint8_t)(~DMA_GCSR_GE);
3951  0000 72115070      	bres	20592,#0
3952                     ; 869   DMA1_Channel3->CCR &= (uint8_t)(~DMA_CCR_CE);
3954  0004 72115093      	bres	20627,#0
3955                     ; 870   DMA1_Channel3->CCR &= (uint8_t)(~DMA_CCR_CE);
3957  0008 72115093      	bres	20627,#0
3958                     ; 872   DMA1_Channel3->CCR  = DMA_CCR_RESET_VALUE;
3960  000c 725f5093      	clr	20627
3961                     ; 874   DMA1_Channel3->CCR |= ((uint8_t)DMA_DIR_MemoryToPeripheral |(uint8_t) DMA_Mode_Circular |(uint8_t)DMA_MemoryIncMode_Inc);
3963  0010 c65093        	ld	a,20627
3964  0013 aa38          	or	a,#56
3965  0015 c75093        	ld	20627,a
3966                     ; 876   DMA1_Channel3->CSPR &= (uint8_t)~(DMA_CSPR_PL | DMA_CSPR_16BM);
3968  0018 c65094        	ld	a,20628
3969  001b a4c7          	and	a,#199
3970  001d c75094        	ld	20628,a
3971                     ; 878   DMA1_Channel3->CSPR |= ((uint8_t)DMA_Priority_VeryHigh |(uint8_t)DMA_MemoryDataSize_HalfWord);
3973  0020 c65094        	ld	a,20628
3974  0023 aa38          	or	a,#56
3975  0025 c75094        	ld	20628,a
3976                     ; 881   DMA1_Channel3->CNBTR = (uint8_t)sample_size;
3978  0028 5500035095    	mov	20629,_sample_size
3979                     ; 885   DMA1_Channel3->CPARH = (uint8_t)(DAC_CH1RDHRH_ADDRESS >> (uint8_t)8);
3981  002d 35535096      	mov	20630,#83
3982                     ; 886   DMA1_Channel3->CPARL = (uint8_t)(DAC_CH1RDHRH_ADDRESS);
3984  0031 35885097      	mov	20631,#136
3985                     ; 889   if(sample_size == 65)
3987  0035 b603          	ld	a,_sample_size
3988  0037 a141          	cp	a,#65
3989  0039 2618          	jrne	L526
3990                     ; 891     DMA1_Channel3->CM0ARH = (uint8_t)(WavesTab65[wave_type] >> (uint8_t)8);
3992  003b b600          	ld	a,_wave_type
3993  003d 5f            	clrw	x
3994  003e 97            	ld	xl,a
3995  003f 58            	sllw	x
3996  0040 4f            	clr	a
3997  0041 de0831        	ldw	x,(_WavesTab65,x)
3998  0044 01            	rrwa	x,a
3999  0045 9f            	ld	a,xl
4000  0046 c75099        	ld	20633,a
4001                     ; 892     DMA1_Channel3->CM0ARL = (uint8_t)(WavesTab65[wave_type]);	
4003  0049 5f            	clrw	x
4004  004a b600          	ld	a,_wave_type
4005  004c 97            	ld	xl,a
4006  004d 58            	sllw	x
4007  004e d60832        	ld	a,(_WavesTab65+1,x)
4009  0051 202e          	jra	L726
4010  0053               L526:
4011                     ; 894   else if(sample_size == 130)
4013  0053 a182          	cp	a,#130
4014  0055 2618          	jrne	L136
4015                     ; 896     DMA1_Channel3->CM0ARH = (uint8_t)(WavesTab130[wave_type] >> (uint8_t)8);
4017  0057 b600          	ld	a,_wave_type
4018  0059 5f            	clrw	x
4019  005a 97            	ld	xl,a
4020  005b 58            	sllw	x
4021  005c 4f            	clr	a
4022  005d de083d        	ldw	x,(_WavesTab130,x)
4023  0060 01            	rrwa	x,a
4024  0061 9f            	ld	a,xl
4025  0062 c75099        	ld	20633,a
4026                     ; 897     DMA1_Channel3->CM0ARL = (uint8_t)(WavesTab130[wave_type]);	
4028  0065 5f            	clrw	x
4029  0066 b600          	ld	a,_wave_type
4030  0068 97            	ld	xl,a
4031  0069 58            	sllw	x
4032  006a d6083e        	ld	a,(_WavesTab130+1,x)
4034  006d 2012          	jra	L726
4035  006f               L136:
4036                     ; 901    DMA1_Channel3->CM0ARH = (uint8_t)(WavesTabPWM[req_duty_PWM] >> (uint8_t)8);
4038  006f be09          	ldw	x,_req_duty_PWM
4039  0071 58            	sllw	x
4040  0072 4f            	clr	a
4041  0073 de0823        	ldw	x,(_WavesTabPWM,x)
4042  0076 01            	rrwa	x,a
4043  0077 9f            	ld	a,xl
4044  0078 c75099        	ld	20633,a
4045                     ; 902    DMA1_Channel3->CM0ARL = (uint8_t)(WavesTabPWM[req_duty_PWM]); 
4047  007b be09          	ldw	x,_req_duty_PWM
4048  007d 58            	sllw	x
4049  007e d60824        	ld	a,(_WavesTabPWM+1,x)
4050  0081               L726:
4051  0081 c7509a        	ld	20634,a
4052                     ; 905   DMA1_Channel3->CCR |= DMA_CCR_CE;
4054  0084 72105093      	bset	20627,#0
4055                     ; 907   DMA1->GCSR |= (uint8_t)DMA_GCSR_GE;
4057  0088 72105070      	bset	20592,#0
4058                     ; 908 }
4061  008c 81            	ret	
4509                     	xdef	_main
4510                     	xref.b	_ADSampRdy
4511                     	xref.b	_btn_chg_wave_delay_flag
4512                     	xref.b	_btn_freq_dec_delay_flag
4513                     	xref.b	_btn_freq_inc_delay_flag
4514                     	xref.b	_btn_freq_duty_delay_flag
4515                     	xref.b	_btn_freq_dec_press_tmr
4516                     	xref.b	_btn_freq_inc_press_tmr
4517                     	xref.b	_btn_chg_wave_state
4518                     	xref.b	_btn_freq_dec_state
4519                     	xref.b	_btn_freq_inc_state
4520                     	xref.b	_btn_freq_duty_state
4521                     	xref.b	_adc_measurement_selector
4522                     	switch	.ubsct
4523  0000               _str:
4524  0000 000000000000  	ds.b	7
4525                     	xdef	_str
4526                     	xref.b	_trigger_flag_60ms
4527                     	xref.b	_adc_extVoltage
4528                     	xref.b	_adc_GenSigMax
4529                     	xref.b	_adc_IntREF
4530                     	xdef	_ExtVoltage
4531                     	xdef	_GenSignal_old
4532                     	xdef	_GenSignal
4533                     	xdef	_VDD
4534                     	xdef	_calc_freq16
4535                     	xdef	_frequency_duty_sel_old
4536                     	xdef	_frequency_duty_sel
4537                     	xdef	_button_pressed
4538                     	xdef	_calc_freq
4539                     	xdef	_req_duty_PWM
4540                     	xdef	_req_freq_PWM
4541                     	xdef	_req_freq
4542                     	xdef	_btn_delay_start
4543                     	xdef	_sample_size
4544                     	xdef	_display_loop
4545                     	xdef	_wave_type_old
4546                     	xdef	_wave_type
4547                     	xdef	_IntREF_const
4548                     	xdef	_FreqTab
4549                     	xdef	_ARRTab
4550                     	xdef	_PSCTab
4551                     	xdef	_WavesTab130
4552                     	xdef	_WavesTab65
4553                     	xdef	_WavesTabPWM
4554                     	xdef	_PWMTabVal
4555                     	xdef	_PWMTabDiv
4556                     	xdef	_PWMTabSize
4557                     	xdef	_Square87p5percent
4558                     	xdef	_Square75percent
4559                     	xdef	_Square62p5percent
4560                     	xdef	_Square50percent
4561                     	xdef	_Square37p5percent
4562                     	xdef	_Square25percent
4563                     	xdef	_Square12p5percent
4564                     	xdef	_SawTooth12bit2
4565                     	xdef	_Square12bit2
4566                     	xdef	_Sinus12bit2
4567                     	xdef	_Triang12bit2
4568                     	xdef	_SinCard12bit2
4569                     	xdef	_SawTooth12bit
4570                     	xdef	_Square12bit
4571                     	xdef	_Sinus12bit
4572                     	xdef	_Triang12bit
4573                     	xdef	_SinCard12bit
4574                     	xdef	_DMA_ReInit
4575                     	xref	_LCD_GLASS_Clear
4576                     	xref	_LCD_GLASS_DisplayString
4577                     	xref	_LCD_GLASS_WriteChar
4578                     	xref	_LCD_GLASS_Init
4579                     	xref	_TIM4_Cmd
4580                     	xref	_TIM4_TimeBaseInit
4581                     	xref	_TIM3_ITConfig
4582                     	xref	_TIM3_Cmd
4583                     	xref	_TIM3_TimeBaseInit
4584                     	xref	_TIM3_DeInit
4585                     	xref	_TIM1_SelectOutputTrigger
4586                     	xref	_TIM1_ITConfig
4587                     	xref	_TIM1_Cmd
4588                     	xref	_TIM1_OC1Init
4589                     	xref	_TIM1_TimeBaseInit
4590                     	xref	_TIM1_DeInit
4591                     	xref	_LCD_ContrastConfig
4592                     	xref	_GPIO_ResetBits
4593                     	xref	_GPIO_SetBits
4594                     	xref	_GPIO_Init
4595                     	xref	_CLK_PeripheralClockConfig
4596                     	xref	_CLK_SYSCLKDivConfig
4597                     	xref	_ADC_ExternalTrigConfig
4598                     	xref	_ADC_SchmittTriggerConfig
4599                     	xref	_ADC_VrefintCmd
4600                     	xref	_ADC_DMACmd
4601                     	xref	_ADC_ITConfig
4602                     	xref	_ADC_ChannelCmd
4603                     	xref	_ADC_Init
4604                     	xref	_ADC_DeInit
4605                     	switch	.const
4606  0aed               L715:
4607  0aed 50574d445459  	dc.b	"PWMDTY",0
4608  0af4               L115:
4609  0af4 50574d465251  	dc.b	"PWMFRQ",0
4610  0afb               L505:
4611  0afb 53415700      	dc.b	"SAW",0
4612  0aff               L305:
4613  0aff 53494e4500    	dc.b	"SINE",0
4614  0b04               L105:
4615  0b04 53494e4300    	dc.b	"SINC",0
4616  0b09               L774:
4617  0b09 535155415245  	dc.b	"SQUARE",0
4618  0b10               L574:
4619  0b10 52414d5000    	dc.b	"RAMP",0
4620                     	xref.b	c_lreg
4621                     	xref.b	c_x
4622                     	xref.b	c_y
4642                     	xref	c_lursh
4643                     	xref	c_umul
4644                     	xref	c_ludv
4645                     	xref	c_rtol
4646                     	xref	c_uitolx
4647                     	xref	c_ltor
4648                     	xref	c_lgursh
4649                     	end
